
executable.out:     file format elf64-littleriscv


Disassembly of section .text.init:

0000000080000000 <_start>:
    80000000:	00000093          	li	ra,0
    80000004:	00000113          	li	sp,0
    80000008:	00000193          	li	gp,0
    8000000c:	00000213          	li	tp,0
    80000010:	00000293          	li	t0,0
    80000014:	00000313          	li	t1,0
    80000018:	00000393          	li	t2,0
    8000001c:	00000413          	li	s0,0
    80000020:	00000493          	li	s1,0
    80000024:	00000513          	li	a0,0
    80000028:	00000593          	li	a1,0
    8000002c:	00000613          	li	a2,0
    80000030:	00000693          	li	a3,0
    80000034:	00000713          	li	a4,0
    80000038:	00000793          	li	a5,0
    8000003c:	00000813          	li	a6,0
    80000040:	00000893          	li	a7,0
    80000044:	00000913          	li	s2,0
    80000048:	00000993          	li	s3,0
    8000004c:	00000a13          	li	s4,0
    80000050:	00000a93          	li	s5,0
    80000054:	00000b13          	li	s6,0
    80000058:	00000b93          	li	s7,0
    8000005c:	00000c13          	li	s8,0
    80000060:	00000c93          	li	s9,0
    80000064:	00000d13          	li	s10,0
    80000068:	00000d93          	li	s11,0
    8000006c:	00000e13          	li	t3,0
    80000070:	00000e93          	li	t4,0
    80000074:	00000f13          	li	t5,0
    80000078:	00000f93          	li	t6,0
    8000007c:	00000297          	auipc	t0,0x0
    80000080:	04028293          	addi	t0,t0,64 # 800000bc <trap_entry>
    80000084:	30529073          	csrw	mtvec,t0
    80000088:	00004197          	auipc	gp,0x4
    8000008c:	fc018193          	addi	gp,gp,-64 # 80004048 <_gp>

0000000080000090 <init_stack>:
    80000090:	00004517          	auipc	a0,0x4
    80000094:	7f050513          	addi	a0,a0,2032 # 80004880 <_heap_end>
    80000098:	00005597          	auipc	a1,0x5
    8000009c:	7e458593          	addi	a1,a1,2020 # 8000587c <_heap_end+0xffc>
    800000a0:	00000613          	li	a2,0
    800000a4:	1b8000ef          	jal	ra,8000025c <fill_block>
    800000a8:	00005217          	auipc	tp,0x5
    800000ac:	7d820213          	addi	tp,tp,2008 # 80005880 <__stack>
    800000b0:	00005117          	auipc	sp,0x5
    800000b4:	7d010113          	addi	sp,sp,2000 # 80005880 <__stack>
    800000b8:	4f80206f          	j	800025b0 <_init>

00000000800000bc <trap_entry>:
    800000bc:	ef010113          	addi	sp,sp,-272
    800000c0:	00113423          	sd	ra,8(sp)
    800000c4:	00213823          	sd	sp,16(sp)
    800000c8:	00313c23          	sd	gp,24(sp)
    800000cc:	02413023          	sd	tp,32(sp)
    800000d0:	02513423          	sd	t0,40(sp)
    800000d4:	02613823          	sd	t1,48(sp)
    800000d8:	02713c23          	sd	t2,56(sp)
    800000dc:	04813023          	sd	s0,64(sp)
    800000e0:	04913423          	sd	s1,72(sp)
    800000e4:	04a13823          	sd	a0,80(sp)
    800000e8:	04b13c23          	sd	a1,88(sp)
    800000ec:	06c13023          	sd	a2,96(sp)
    800000f0:	06d13423          	sd	a3,104(sp)
    800000f4:	06e13823          	sd	a4,112(sp)
    800000f8:	06f13c23          	sd	a5,120(sp)
    800000fc:	09013023          	sd	a6,128(sp)
    80000100:	09113423          	sd	a7,136(sp)
    80000104:	09213823          	sd	s2,144(sp)
    80000108:	09313c23          	sd	s3,152(sp)
    8000010c:	0b413023          	sd	s4,160(sp)
    80000110:	0b513423          	sd	s5,168(sp)
    80000114:	0b613823          	sd	s6,176(sp)
    80000118:	0b713c23          	sd	s7,184(sp)
    8000011c:	0d813023          	sd	s8,192(sp)
    80000120:	0d913423          	sd	s9,200(sp)
    80000124:	0da13823          	sd	s10,208(sp)
    80000128:	0db13c23          	sd	s11,216(sp)
    8000012c:	0fc13023          	sd	t3,224(sp)
    80000130:	0fd13423          	sd	t4,232(sp)
    80000134:	0fe13823          	sd	t5,240(sp)
    80000138:	0ff13c23          	sd	t6,248(sp)
    8000013c:	34202573          	csrr	a0,mcause
    80000140:	02055463          	bgez	a0,80000168 <machine_timer_interrupt_handler+0x18>
    80000144:	00151513          	slli	a0,a0,0x1
    80000148:	00e00593          	li	a1,14
    8000014c:	00a59e63          	bne	a1,a0,80000168 <machine_timer_interrupt_handler+0x18>

0000000080000150 <machine_timer_interrupt_handler>:
    80000150:	08000593          	li	a1,128
    80000154:	3045b073          	csrc	mie,a1
    80000158:	fff00593          	li	a1,-1
    8000015c:	020042b7          	lui	t0,0x2004
    80000160:	00b2b023          	sd	a1,0(t0) # 2004000 <_tbss_end+0x2003fbc>
    80000164:	0680006f          	j	800001cc <return_from_trap_handler>
    80000168:	00600513          	li	a0,6
    8000016c:	04b51663          	bne	a0,a1,800001b8 <general_trap_handler>

0000000080000170 <machine_software_interrupt_handler>:
    80000170:	10013503          	ld	a0,256(sp)
    80000174:	00052023          	sw	zero,0(a0)
    80000178:	0ff0000f          	fence
    8000017c:	10810513          	addi	a0,sp,264
    80000180:	0805252f          	amoswap.w	a0,zero,(a0)
    80000184:	00157593          	andi	a1,a0,1
    80000188:	00058463          	beqz	a1,80000190 <machine_software_interrupt_handler+0x20>
    8000018c:	34416073          	csrsi	mip,2
    80000190:	00257593          	andi	a1,a0,2
    80000194:	00058463          	beqz	a1,8000019c <machine_software_interrupt_handler+0x2c>
    80000198:	0000100f          	fence.i
    8000019c:	00457593          	andi	a1,a0,4
    800001a0:	00058463          	beqz	a1,800001a8 <machine_software_interrupt_handler+0x38>
    800001a4:	12000073          	sfence.vma
    800001a8:	00857593          	andi	a1,a0,8
    800001ac:	00058663          	beqz	a1,800001b8 <general_trap_handler>
    800001b0:	10500073          	wfi
    800001b4:	ff5ff06f          	j	800001a8 <machine_software_interrupt_handler+0x38>

00000000800001b8 <general_trap_handler>:
    800001b8:	34202573          	csrr	a0,mcause
    800001bc:	341025f3          	csrr	a1,mepc
    800001c0:	00010613          	mv	a2,sp
    800001c4:	1dd020ef          	jal	ra,80002ba0 <handle_trap>
    800001c8:	34151073          	csrw	mepc,a0

00000000800001cc <return_from_trap_handler>:
    800001cc:	000022b7          	lui	t0,0x2
    800001d0:	8002829b          	addiw	t0,t0,-2048
    800001d4:	3002a073          	csrs	mstatus,t0
    800001d8:	00813083          	ld	ra,8(sp)
    800001dc:	01013103          	ld	sp,16(sp)
    800001e0:	01813183          	ld	gp,24(sp)
    800001e4:	02013203          	ld	tp,32(sp)
    800001e8:	02813283          	ld	t0,40(sp)
    800001ec:	03013303          	ld	t1,48(sp)
    800001f0:	03813383          	ld	t2,56(sp)
    800001f4:	04013403          	ld	s0,64(sp)
    800001f8:	04813483          	ld	s1,72(sp)
    800001fc:	05013503          	ld	a0,80(sp)
    80000200:	05813583          	ld	a1,88(sp)
    80000204:	06013603          	ld	a2,96(sp)
    80000208:	06813683          	ld	a3,104(sp)
    8000020c:	07013703          	ld	a4,112(sp)
    80000210:	07813783          	ld	a5,120(sp)
    80000214:	08013803          	ld	a6,128(sp)
    80000218:	08813883          	ld	a7,136(sp)
    8000021c:	09013903          	ld	s2,144(sp)
    80000220:	09813983          	ld	s3,152(sp)
    80000224:	0a013a03          	ld	s4,160(sp)
    80000228:	0a813a83          	ld	s5,168(sp)
    8000022c:	0b013b03          	ld	s6,176(sp)
    80000230:	0b813b83          	ld	s7,184(sp)
    80000234:	0c013c03          	ld	s8,192(sp)
    80000238:	0c813c83          	ld	s9,200(sp)
    8000023c:	0d013d03          	ld	s10,208(sp)
    80000240:	0d813d83          	ld	s11,216(sp)
    80000244:	0e013e03          	ld	t3,224(sp)
    80000248:	0e813e83          	ld	t4,232(sp)
    8000024c:	0f013f03          	ld	t5,240(sp)
    80000250:	0f813f83          	ld	t6,248(sp)
    80000254:	11010113          	addi	sp,sp,272
    80000258:	30200073          	mret

000000008000025c <fill_block>:
    8000025c:	00c52023          	sw	a2,0(a0)
    80000260:	00b57663          	bleu	a1,a0,8000026c <fb_end>
    80000264:	00450513          	addi	a0,a0,4
    80000268:	ff5ff06f          	j	8000025c <fill_block>

000000008000026c <fb_end>:
    8000026c:	00008067          	ret

Disassembly of section .text:

0000000080001048 <init_csrs>:
    80001048:	30405073          	csrwi	mie,0
    8000104c:	10405073          	csrwi	sie,0
    80001050:	34405073          	csrwi	mip,0
    80001054:	14405073          	csrwi	sip,0
    80001058:	30305073          	csrwi	mideleg,0
    8000105c:	30205073          	csrwi	medeleg,0
    80001060:	00008067          	ret

0000000080001064 <enable_timer_interrupts>:
    80001064:	020047b7          	lui	a5,0x2004
    80001068:	fff00713          	li	a4,-1
    8000106c:	00e7b023          	sd	a4,0(a5) # 2004000 <_tbss_end+0x2003fbc>
    80001070:	08000793          	li	a5,128
    80001074:	3047a7f3          	csrrs	a5,mie,a5
    80001078:	300467f3          	csrrsi	a5,mstatus,8
    8000107c:	00008067          	ret

0000000080001080 <sprintf_putch.2480>:
    80001080:	0005b783          	ld	a5,0(a1)
    80001084:	00a78023          	sb	a0,0(a5)
    80001088:	0005b783          	ld	a5,0(a1)
    8000108c:	00178793          	addi	a5,a5,1
    80001090:	00f5b023          	sd	a5,0(a1)
    80001094:	00008067          	ret

0000000080001098 <putchar>:
    80001098:	04022803          	lw	a6,64(tp) # 40 <buflen.2366>
    8000109c:	00020793          	mv	a5,tp
    800010a0:	010787b3          	add	a5,a5,a6
    800010a4:	f8010113          	addi	sp,sp,-128
    800010a8:	0018069b          	addiw	a3,a6,1
    800010ac:	04d22023          	sw	a3,64(tp) # 40 <buflen.2366>
    800010b0:	00a78023          	sb	a0,0(a5)
    800010b4:	03f10713          	addi	a4,sp,63
    800010b8:	00a00793          	li	a5,10
    800010bc:	fc077713          	andi	a4,a4,-64
    800010c0:	00f50c63          	beq	a0,a5,800010d8 <putchar+0x40>
    800010c4:	04000793          	li	a5,64
    800010c8:	00f68863          	beq	a3,a5,800010d8 <putchar+0x40>
    800010cc:	00000513          	li	a0,0
    800010d0:	08010113          	addi	sp,sp,128
    800010d4:	00008067          	ret
    800010d8:	04000793          	li	a5,64
    800010dc:	00f73023          	sd	a5,0(a4)
    800010e0:	00100793          	li	a5,1
    800010e4:	00f73423          	sd	a5,8(a4)
    800010e8:	00020613          	mv	a2,tp
    800010ec:	00c73823          	sd	a2,16(a4)
    800010f0:	00d73c23          	sd	a3,24(a4)
    800010f4:	0ff0000f          	fence
    800010f8:	00000797          	auipc	a5,0x0
    800010fc:	f0e7b423          	sd	a4,-248(a5) # 80001000 <tohost>
    80001100:	00000697          	auipc	a3,0x0
    80001104:	f4068693          	addi	a3,a3,-192 # 80001040 <fromhost>
    80001108:	0006b783          	ld	a5,0(a3)
    8000110c:	fe078ee3          	beqz	a5,80001108 <putchar+0x70>
    80001110:	00000797          	auipc	a5,0x0
    80001114:	f207b823          	sd	zero,-208(a5) # 80001040 <fromhost>
    80001118:	0ff0000f          	fence
    8000111c:	04022023          	sw	zero,64(tp) # 40 <buflen.2366>
    80001120:	00073783          	ld	a5,0(a4)
    80001124:	00000513          	li	a0,0
    80001128:	08010113          	addi	sp,sp,128
    8000112c:	00008067          	ret

0000000080001130 <vprintfmt.constprop.3>:
    80001130:	ec010113          	addi	sp,sp,-320
    80001134:	12813c23          	sd	s0,312(sp)
    80001138:	12913823          	sd	s1,304(sp)
    8000113c:	13213423          	sd	s2,296(sp)
    80001140:	13313023          	sd	s3,288(sp)
    80001144:	11413c23          	sd	s4,280(sp)
    80001148:	11513823          	sd	s5,272(sp)
    8000114c:	11613423          	sd	s6,264(sp)
    80001150:	11713023          	sd	s7,256(sp)
    80001154:	02500813          	li	a6,37
    80001158:	fff00f13          	li	t5,-1
    8000115c:	05500e13          	li	t3,85
    80001160:	00002317          	auipc	t1,0x2
    80001164:	22030313          	addi	t1,t1,544 # 80003380 <main+0x714>
    80001168:	00900893          	li	a7,9
    8000116c:	02d00493          	li	s1,45
    80001170:	02500f93          	li	t6,37
    80001174:	00100e93          	li	t4,1
    80001178:	03000393          	li	t2,48
    8000117c:	07800293          	li	t0,120
    80001180:	02d00413          	li	s0,45
    80001184:	0005c703          	lbu	a4,0(a1)
    80001188:	0007079b          	sext.w	a5,a4
    8000118c:	03078a63          	beq	a5,a6,800011c0 <vprintfmt.constprop.3+0x90>
    80001190:	06078863          	beqz	a5,80001200 <vprintfmt.constprop.3+0xd0>
    80001194:	00053783          	ld	a5,0(a0)
    80001198:	0080006f          	j	800011a0 <vprintfmt.constprop.3+0x70>
    8000119c:	06068263          	beqz	a3,80001200 <vprintfmt.constprop.3+0xd0>
    800011a0:	00e78023          	sb	a4,0(a5)
    800011a4:	00053783          	ld	a5,0(a0)
    800011a8:	00158593          	addi	a1,a1,1
    800011ac:	00178793          	addi	a5,a5,1
    800011b0:	00f53023          	sd	a5,0(a0)
    800011b4:	0005c703          	lbu	a4,0(a1)
    800011b8:	0007069b          	sext.w	a3,a4
    800011bc:	ff0690e3          	bne	a3,a6,8000119c <vprintfmt.constprop.3+0x6c>
    800011c0:	0015c903          	lbu	s2,1(a1)
    800011c4:	00158b93          	addi	s7,a1,1
    800011c8:	000b8713          	mv	a4,s7
    800011cc:	02000a93          	li	s5,32
    800011d0:	fff00993          	li	s3,-1
    800011d4:	fff00a13          	li	s4,-1
    800011d8:	00000b13          	li	s6,0
    800011dc:	fdd9079b          	addiw	a5,s2,-35
    800011e0:	0ff7f793          	andi	a5,a5,255
    800011e4:	00170593          	addi	a1,a4,1
    800011e8:	2cfe6063          	bltu	t3,a5,800014a8 <vprintfmt.constprop.3+0x378>
    800011ec:	00279793          	slli	a5,a5,0x2
    800011f0:	006787b3          	add	a5,a5,t1
    800011f4:	0007a783          	lw	a5,0(a5)
    800011f8:	006787b3          	add	a5,a5,t1
    800011fc:	00078067          	jr	a5
    80001200:	13813403          	ld	s0,312(sp)
    80001204:	13013483          	ld	s1,304(sp)
    80001208:	12813903          	ld	s2,296(sp)
    8000120c:	12013983          	ld	s3,288(sp)
    80001210:	11813a03          	ld	s4,280(sp)
    80001214:	11013a83          	ld	s5,272(sp)
    80001218:	10813b03          	ld	s6,264(sp)
    8000121c:	10013b83          	ld	s7,256(sp)
    80001220:	14010113          	addi	sp,sp,320
    80001224:	00008067          	ret
    80001228:	00800693          	li	a3,8
    8000122c:	00860913          	addi	s2,a2,8
    80001230:	136eda63          	ble	s6,t4,80001364 <vprintfmt.constprop.3+0x234>
    80001234:	00053783          	ld	a5,0(a0)
    80001238:	00063703          	ld	a4,0(a2)
    8000123c:	00090613          	mv	a2,s2
    80001240:	02d77b33          	remu	s6,a4,a3
    80001244:	00410913          	addi	s2,sp,4
    80001248:	00100993          	li	s3,1
    8000124c:	01612023          	sw	s6,0(sp)
    80001250:	00d77663          	bleu	a3,a4,8000125c <vprintfmt.constprop.3+0x12c>
    80001254:	2700006f          	j	800014c4 <vprintfmt.constprop.3+0x394>
    80001258:	000b0993          	mv	s3,s6
    8000125c:	02d75733          	divu	a4,a4,a3
    80001260:	00490913          	addi	s2,s2,4
    80001264:	00198b1b          	addiw	s6,s3,1
    80001268:	02d77bb3          	remu	s7,a4,a3
    8000126c:	ff792e23          	sw	s7,-4(s2)
    80001270:	fed774e3          	bleu	a3,a4,80001258 <vprintfmt.constprop.3+0x128>
    80001274:	034b5463          	ble	s4,s6,8000129c <vprintfmt.constprop.3+0x16c>
    80001278:	00078713          	mv	a4,a5
    8000127c:	000a069b          	sext.w	a3,s4
    80001280:	01570023          	sb	s5,0(a4)
    80001284:	00053783          	ld	a5,0(a0)
    80001288:	fff6869b          	addiw	a3,a3,-1
    8000128c:	00178713          	addi	a4,a5,1
    80001290:	00e53023          	sd	a4,0(a0)
    80001294:	00070793          	mv	a5,a4
    80001298:	fedb44e3          	blt	s6,a3,80001280 <vprintfmt.constprop.3+0x150>
    8000129c:	00299693          	slli	a3,s3,0x2
    800012a0:	00d106b3          	add	a3,sp,a3
    800012a4:	0280006f          	j	800012cc <vprintfmt.constprop.3+0x19c>
    800012a8:	0577071b          	addiw	a4,a4,87
    800012ac:	00e78023          	sb	a4,0(a5)
    800012b0:	00053783          	ld	a5,0(a0)
    800012b4:	fff9899b          	addiw	s3,s3,-1
    800012b8:	0019871b          	addiw	a4,s3,1
    800012bc:	00178793          	addi	a5,a5,1
    800012c0:	00f53023          	sd	a5,0(a0)
    800012c4:	ffc68693          	addi	a3,a3,-4
    800012c8:	eae05ee3          	blez	a4,80001184 <vprintfmt.constprop.3+0x54>
    800012cc:	0006a703          	lw	a4,0(a3)
    800012d0:	fce8ece3          	bltu	a7,a4,800012a8 <vprintfmt.constprop.3+0x178>
    800012d4:	0307071b          	addiw	a4,a4,48
    800012d8:	fd5ff06f          	j	800012ac <vprintfmt.constprop.3+0x17c>
    800012dc:	00053783          	ld	a5,0(a0)
    800012e0:	00860913          	addi	s2,a2,8
    800012e4:	01000693          	li	a3,16
    800012e8:	00778023          	sb	t2,0(a5)
    800012ec:	00053783          	ld	a5,0(a0)
    800012f0:	00178713          	addi	a4,a5,1
    800012f4:	00e53023          	sd	a4,0(a0)
    800012f8:	005780a3          	sb	t0,1(a5)
    800012fc:	00053783          	ld	a5,0(a0)
    80001300:	00178793          	addi	a5,a5,1
    80001304:	00f53023          	sd	a5,0(a0)
    80001308:	00063703          	ld	a4,0(a2)
    8000130c:	00090613          	mv	a2,s2
    80001310:	f31ff06f          	j	80001240 <vprintfmt.constprop.3+0x110>
    80001314:	00063703          	ld	a4,0(a2)
    80001318:	00860613          	addi	a2,a2,8
    8000131c:	24070863          	beqz	a4,8000156c <vprintfmt.constprop.3+0x43c>
    80001320:	1d405863          	blez	s4,800014f0 <vprintfmt.constprop.3+0x3c0>
    80001324:	229a8e63          	beq	s5,s1,80001560 <vprintfmt.constprop.3+0x430>
    80001328:	000a0b1b          	sext.w	s6,s4
    8000132c:	1a098463          	beqz	s3,800014d4 <vprintfmt.constprop.3+0x3a4>
    80001330:	00074783          	lbu	a5,0(a4)
    80001334:	1a078063          	beqz	a5,800014d4 <vprintfmt.constprop.3+0x3a4>
    80001338:	00170793          	addi	a5,a4,1
    8000133c:	01370a33          	add	s4,a4,s3
    80001340:	26fa0063          	beq	s4,a5,800015a0 <vprintfmt.constprop.3+0x470>
    80001344:	00178693          	addi	a3,a5,1
    80001348:	fff6c903          	lbu	s2,-1(a3)
    8000134c:	26090463          	beqz	s2,800015b4 <vprintfmt.constprop.3+0x484>
    80001350:	00068793          	mv	a5,a3
    80001354:	fedff06f          	j	80001340 <vprintfmt.constprop.3+0x210>
    80001358:	00a00693          	li	a3,10
    8000135c:	00860913          	addi	s2,a2,8
    80001360:	ed6ecae3          	blt	t4,s6,80001234 <vprintfmt.constprop.3+0x104>
    80001364:	00053783          	ld	a5,0(a0)
    80001368:	fa0b10e3          	bnez	s6,80001308 <vprintfmt.constprop.3+0x1d8>
    8000136c:	00066703          	lwu	a4,0(a2)
    80001370:	00090613          	mv	a2,s2
    80001374:	ecdff06f          	j	80001240 <vprintfmt.constprop.3+0x110>
    80001378:	00174903          	lbu	s2,1(a4)
    8000137c:	00058713          	mv	a4,a1
    80001380:	e5dff06f          	j	800011dc <vprintfmt.constprop.3+0xac>
    80001384:	00053783          	ld	a5,0(a0)
    80001388:	01f78023          	sb	t6,0(a5)
    8000138c:	00053783          	ld	a5,0(a0)
    80001390:	00178793          	addi	a5,a5,1
    80001394:	00f53023          	sd	a5,0(a0)
    80001398:	dedff06f          	j	80001184 <vprintfmt.constprop.3+0x54>
    8000139c:	01000693          	li	a3,16
    800013a0:	e8dff06f          	j	8000122c <vprintfmt.constprop.3+0xfc>
    800013a4:	00062983          	lw	s3,0(a2)
    800013a8:	00174903          	lbu	s2,1(a4)
    800013ac:	00860613          	addi	a2,a2,8
    800013b0:	00058713          	mv	a4,a1
    800013b4:	e20a54e3          	bgez	s4,800011dc <vprintfmt.constprop.3+0xac>
    800013b8:	00098a13          	mv	s4,s3
    800013bc:	fff00993          	li	s3,-1
    800013c0:	e1dff06f          	j	800011dc <vprintfmt.constprop.3+0xac>
    800013c4:	00174903          	lbu	s2,1(a4)
    800013c8:	02d00a93          	li	s5,45
    800013cc:	00058713          	mv	a4,a1
    800013d0:	e0dff06f          	j	800011dc <vprintfmt.constprop.3+0xac>
    800013d4:	fffa4693          	not	a3,s4
    800013d8:	43f6d693          	srai	a3,a3,0x3f
    800013dc:	00da76b3          	and	a3,s4,a3
    800013e0:	00174903          	lbu	s2,1(a4)
    800013e4:	00068a1b          	sext.w	s4,a3
    800013e8:	00058713          	mv	a4,a1
    800013ec:	df1ff06f          	j	800011dc <vprintfmt.constprop.3+0xac>
    800013f0:	00174903          	lbu	s2,1(a4)
    800013f4:	03000a93          	li	s5,48
    800013f8:	00058713          	mv	a4,a1
    800013fc:	de1ff06f          	j	800011dc <vprintfmt.constprop.3+0xac>
    80001400:	fd09099b          	addiw	s3,s2,-48
    80001404:	00174903          	lbu	s2,1(a4)
    80001408:	00058713          	mv	a4,a1
    8000140c:	fd09079b          	addiw	a5,s2,-48
    80001410:	0009069b          	sext.w	a3,s2
    80001414:	faf8e0e3          	bltu	a7,a5,800013b4 <vprintfmt.constprop.3+0x284>
    80001418:	00170713          	addi	a4,a4,1
    8000141c:	0029979b          	slliw	a5,s3,0x2
    80001420:	00074903          	lbu	s2,0(a4)
    80001424:	013789bb          	addw	s3,a5,s3
    80001428:	0019999b          	slliw	s3,s3,0x1
    8000142c:	00d989bb          	addw	s3,s3,a3
    80001430:	fd09079b          	addiw	a5,s2,-48
    80001434:	fd09899b          	addiw	s3,s3,-48
    80001438:	0009069b          	sext.w	a3,s2
    8000143c:	fcf8fee3          	bleu	a5,a7,80001418 <vprintfmt.constprop.3+0x2e8>
    80001440:	f75ff06f          	j	800013b4 <vprintfmt.constprop.3+0x284>
    80001444:	00062703          	lw	a4,0(a2)
    80001448:	00053783          	ld	a5,0(a0)
    8000144c:	00860613          	addi	a2,a2,8
    80001450:	00e78023          	sb	a4,0(a5)
    80001454:	00053783          	ld	a5,0(a0)
    80001458:	00178793          	addi	a5,a5,1
    8000145c:	00f53023          	sd	a5,0(a0)
    80001460:	d25ff06f          	j	80001184 <vprintfmt.constprop.3+0x54>
    80001464:	00860793          	addi	a5,a2,8
    80001468:	0f6ed663          	ble	s6,t4,80001554 <vprintfmt.constprop.3+0x424>
    8000146c:	00063703          	ld	a4,0(a2)
    80001470:	10075863          	bgez	a4,80001580 <vprintfmt.constprop.3+0x450>
    80001474:	00053683          	ld	a3,0(a0)
    80001478:	00078613          	mv	a2,a5
    8000147c:	40e00733          	neg	a4,a4
    80001480:	00868023          	sb	s0,0(a3)
    80001484:	00053783          	ld	a5,0(a0)
    80001488:	00a00693          	li	a3,10
    8000148c:	00178793          	addi	a5,a5,1
    80001490:	00f53023          	sd	a5,0(a0)
    80001494:	dadff06f          	j	80001240 <vprintfmt.constprop.3+0x110>
    80001498:	00174903          	lbu	s2,1(a4)
    8000149c:	001b0b1b          	addiw	s6,s6,1
    800014a0:	00058713          	mv	a4,a1
    800014a4:	d39ff06f          	j	800011dc <vprintfmt.constprop.3+0xac>
    800014a8:	00053783          	ld	a5,0(a0)
    800014ac:	000b8593          	mv	a1,s7
    800014b0:	01f78023          	sb	t6,0(a5)
    800014b4:	00053783          	ld	a5,0(a0)
    800014b8:	00178793          	addi	a5,a5,1
    800014bc:	00f53023          	sd	a5,0(a0)
    800014c0:	cc5ff06f          	j	80001184 <vprintfmt.constprop.3+0x54>
    800014c4:	00000993          	li	s3,0
    800014c8:	00100b13          	li	s6,1
    800014cc:	db4ec6e3          	blt	t4,s4,80001278 <vprintfmt.constprop.3+0x148>
    800014d0:	dcdff06f          	j	8000129c <vprintfmt.constprop.3+0x16c>
    800014d4:	00053783          	ld	a5,0(a0)
    800014d8:	01578023          	sb	s5,0(a5)
    800014dc:	00053783          	ld	a5,0(a0)
    800014e0:	fffa0a1b          	addiw	s4,s4,-1
    800014e4:	00178793          	addi	a5,a5,1
    800014e8:	00f53023          	sd	a5,0(a0)
    800014ec:	fe0a16e3          	bnez	s4,800014d8 <vprintfmt.constprop.3+0x3a8>
    800014f0:	00074783          	lbu	a5,0(a4)
    800014f4:	c80788e3          	beqz	a5,80001184 <vprintfmt.constprop.3+0x54>
    800014f8:	0409d863          	bgez	s3,80001548 <vprintfmt.constprop.3+0x418>
    800014fc:	00053683          	ld	a3,0(a0)
    80001500:	00170713          	addi	a4,a4,1
    80001504:	fffa0a1b          	addiw	s4,s4,-1
    80001508:	00f68023          	sb	a5,0(a3)
    8000150c:	00053783          	ld	a5,0(a0)
    80001510:	00178793          	addi	a5,a5,1
    80001514:	00f53023          	sd	a5,0(a0)
    80001518:	00074783          	lbu	a5,0(a4)
    8000151c:	fc079ee3          	bnez	a5,800014f8 <vprintfmt.constprop.3+0x3c8>
    80001520:	c74052e3          	blez	s4,80001184 <vprintfmt.constprop.3+0x54>
    80001524:	00053783          	ld	a5,0(a0)
    80001528:	02000713          	li	a4,32
    8000152c:	00e78023          	sb	a4,0(a5)
    80001530:	00053783          	ld	a5,0(a0)
    80001534:	fffa0a1b          	addiw	s4,s4,-1
    80001538:	00178793          	addi	a5,a5,1
    8000153c:	00f53023          	sd	a5,0(a0)
    80001540:	fe0a16e3          	bnez	s4,8000152c <vprintfmt.constprop.3+0x3fc>
    80001544:	c41ff06f          	j	80001184 <vprintfmt.constprop.3+0x54>
    80001548:	fff9899b          	addiw	s3,s3,-1
    8000154c:	fbe998e3          	bne	s3,t5,800014fc <vprintfmt.constprop.3+0x3cc>
    80001550:	fd1ff06f          	j	80001520 <vprintfmt.constprop.3+0x3f0>
    80001554:	f00b1ce3          	bnez	s6,8000146c <vprintfmt.constprop.3+0x33c>
    80001558:	00062703          	lw	a4,0(a2)
    8000155c:	f15ff06f          	j	80001470 <vprintfmt.constprop.3+0x340>
    80001560:	00074783          	lbu	a5,0(a4)
    80001564:	f8079ae3          	bnez	a5,800014f8 <vprintfmt.constprop.3+0x3c8>
    80001568:	fbdff06f          	j	80001524 <vprintfmt.constprop.3+0x3f4>
    8000156c:	03405263          	blez	s4,80001590 <vprintfmt.constprop.3+0x460>
    80001570:	029a8063          	beq	s5,s1,80001590 <vprintfmt.constprop.3+0x460>
    80001574:	00002717          	auipc	a4,0x2
    80001578:	8f470713          	addi	a4,a4,-1804 # 80002e68 <main+0x1fc>
    8000157c:	dadff06f          	j	80001328 <vprintfmt.constprop.3+0x1f8>
    80001580:	00078613          	mv	a2,a5
    80001584:	00a00693          	li	a3,10
    80001588:	00053783          	ld	a5,0(a0)
    8000158c:	cb5ff06f          	j	80001240 <vprintfmt.constprop.3+0x110>
    80001590:	00002717          	auipc	a4,0x2
    80001594:	8d870713          	addi	a4,a4,-1832 # 80002e68 <main+0x1fc>
    80001598:	02800793          	li	a5,40
    8000159c:	f5dff06f          	j	800014f8 <vprintfmt.constprop.3+0x3c8>
    800015a0:	40ea0a33          	sub	s4,s4,a4
    800015a4:	414b0a3b          	subw	s4,s6,s4
    800015a8:	f34046e3          	bgtz	s4,800014d4 <vprintfmt.constprop.3+0x3a4>
    800015ac:	00074783          	lbu	a5,0(a4)
    800015b0:	f49ff06f          	j	800014f8 <vprintfmt.constprop.3+0x3c8>
    800015b4:	40e787b3          	sub	a5,a5,a4
    800015b8:	40fb0a3b          	subw	s4,s6,a5
    800015bc:	fedff06f          	j	800015a8 <vprintfmt.constprop.3+0x478>

00000000800015c0 <vprintfmt.constprop.2>:
    800015c0:	b7010113          	addi	sp,sp,-1168
    800015c4:	13f10693          	addi	a3,sp,319
    800015c8:	fc06f693          	andi	a3,a3,-64
    800015cc:	48813423          	sd	s0,1160(sp)
    800015d0:	48913023          	sd	s1,1152(sp)
    800015d4:	47213c23          	sd	s2,1144(sp)
    800015d8:	47313823          	sd	s3,1136(sp)
    800015dc:	47413423          	sd	s4,1128(sp)
    800015e0:	47513023          	sd	s5,1120(sp)
    800015e4:	45613c23          	sd	s6,1112(sp)
    800015e8:	45713823          	sd	s7,1104(sp)
    800015ec:	45813423          	sd	s8,1096(sp)
    800015f0:	00020e13          	mv	t3,tp
    800015f4:	2c068f13          	addi	t5,a3,704
    800015f8:	00000717          	auipc	a4,0x0
    800015fc:	a4870713          	addi	a4,a4,-1464 # 80001040 <fromhost>
    80001600:	00002f97          	auipc	t6,0x2
    80001604:	ed8f8f93          	addi	t6,t6,-296 # 800034d8 <main+0x86c>
    80001608:	0c068393          	addi	t2,a3,192
    8000160c:	08068293          	addi	t0,a3,128
    80001610:	1c068493          	addi	s1,a3,448
    80001614:	20068413          	addi	s0,a3,512
    80001618:	24068913          	addi	s2,a3,576
    8000161c:	02500993          	li	s3,37
    80001620:	00a00a13          	li	s4,10
    80001624:	04000e93          	li	t4,64
    80001628:	00100a93          	li	s5,1
    8000162c:	00054303          	lbu	t1,0(a0)
    80001630:	0003089b          	sext.w	a7,t1
    80001634:	07388663          	beq	a7,s3,800016a0 <vprintfmt.constprop.2+0xe0>
    80001638:	0a088863          	beqz	a7,800016e8 <vprintfmt.constprop.2+0x128>
    8000163c:	04022603          	lw	a2,64(tp) # 40 <buflen.2366>
    80001640:	00150513          	addi	a0,a0,1
    80001644:	0016079b          	addiw	a5,a2,1
    80001648:	00ce0633          	add	a2,t3,a2
    8000164c:	04f22023          	sw	a5,64(tp) # 40 <buflen.2366>
    80001650:	00660023          	sb	t1,0(a2)
    80001654:	01488463          	beq	a7,s4,8000165c <vprintfmt.constprop.2+0x9c>
    80001658:	fdd79ae3          	bne	a5,t4,8000162c <vprintfmt.constprop.2+0x6c>
    8000165c:	2dd6b023          	sd	t4,704(a3)
    80001660:	2d56b423          	sd	s5,712(a3)
    80001664:	2dc6b823          	sd	t3,720(a3)
    80001668:	2cf6bc23          	sd	a5,728(a3)
    8000166c:	0ff0000f          	fence
    80001670:	00000797          	auipc	a5,0x0
    80001674:	99e7b823          	sd	t5,-1648(a5) # 80001000 <tohost>
    80001678:	00073783          	ld	a5,0(a4)
    8000167c:	fe078ee3          	beqz	a5,80001678 <vprintfmt.constprop.2+0xb8>
    80001680:	00000797          	auipc	a5,0x0
    80001684:	9c07b023          	sd	zero,-1600(a5) # 80001040 <fromhost>
    80001688:	0ff0000f          	fence
    8000168c:	00054303          	lbu	t1,0(a0)
    80001690:	2c06b783          	ld	a5,704(a3)
    80001694:	04022023          	sw	zero,64(tp) # 40 <buflen.2366>
    80001698:	0003089b          	sext.w	a7,t1
    8000169c:	f9389ee3          	bne	a7,s3,80001638 <vprintfmt.constprop.2+0x78>
    800016a0:	00154303          	lbu	t1,1(a0)
    800016a4:	00150a93          	addi	s5,a0,1
    800016a8:	000a8613          	mv	a2,s5
    800016ac:	02000e93          	li	t4,32
    800016b0:	fff00993          	li	s3,-1
    800016b4:	fff00893          	li	a7,-1
    800016b8:	00000b13          	li	s6,0
    800016bc:	05500a13          	li	s4,85
    800016c0:	00900b93          	li	s7,9
    800016c4:	fdd3079b          	addiw	a5,t1,-35
    800016c8:	0ff7f793          	andi	a5,a5,255
    800016cc:	00160513          	addi	a0,a2,1
    800016d0:	42fa6a63          	bltu	s4,a5,80001b04 <vprintfmt.constprop.2+0x544>
    800016d4:	00279793          	slli	a5,a5,0x2
    800016d8:	01f787b3          	add	a5,a5,t6
    800016dc:	0007a783          	lw	a5,0(a5)
    800016e0:	01f787b3          	add	a5,a5,t6
    800016e4:	00078067          	jr	a5
    800016e8:	48813403          	ld	s0,1160(sp)
    800016ec:	48013483          	ld	s1,1152(sp)
    800016f0:	47813903          	ld	s2,1144(sp)
    800016f4:	47013983          	ld	s3,1136(sp)
    800016f8:	46813a03          	ld	s4,1128(sp)
    800016fc:	46013a83          	ld	s5,1120(sp)
    80001700:	45813b03          	ld	s6,1112(sp)
    80001704:	45013b83          	ld	s7,1104(sp)
    80001708:	44813c03          	ld	s8,1096(sp)
    8000170c:	49010113          	addi	sp,sp,1168
    80001710:	00008067          	ret
    80001714:	00800313          	li	t1,8
    80001718:	00100613          	li	a2,1
    8000171c:	00858793          	addi	a5,a1,8
    80001720:	1f665663          	ble	s6,a2,8000190c <vprintfmt.constprop.2+0x34c>
    80001724:	0005b603          	ld	a2,0(a1)
    80001728:	00078593          	mv	a1,a5
    8000172c:	02667a33          	remu	s4,a2,t1
    80001730:	00410993          	addi	s3,sp,4
    80001734:	00100793          	li	a5,1
    80001738:	01412023          	sw	s4,0(sp)
    8000173c:	00666e63          	bltu	a2,t1,80001758 <vprintfmt.constprop.2+0x198>
    80001740:	02665633          	divu	a2,a2,t1
    80001744:	00498993          	addi	s3,s3,4
    80001748:	0017879b          	addiw	a5,a5,1
    8000174c:	02667a33          	remu	s4,a2,t1
    80001750:	ff49ae23          	sw	s4,-4(s3)
    80001754:	fe6676e3          	bleu	t1,a2,80001740 <vprintfmt.constprop.2+0x180>
    80001758:	0008889b          	sext.w	a7,a7
    8000175c:	04000993          	li	s3,64
    80001760:	00100a93          	li	s5,1
    80001764:	0317d263          	ble	a7,a5,80001788 <vprintfmt.constprop.2+0x1c8>
    80001768:	04022603          	lw	a2,64(tp) # 40 <buflen.2366>
    8000176c:	00160a1b          	addiw	s4,a2,1
    80001770:	00ce0633          	add	a2,t3,a2
    80001774:	05422023          	sw	s4,64(tp) # 40 <buflen.2366>
    80001778:	01d60023          	sb	t4,0(a2)
    8000177c:	073a0863          	beq	s4,s3,800017ec <vprintfmt.constprop.2+0x22c>
    80001780:	fff8889b          	addiw	a7,a7,-1
    80001784:	ff17c2e3          	blt	a5,a7,80001768 <vprintfmt.constprop.2+0x1a8>
    80001788:	fff78e9b          	addiw	t4,a5,-1
    8000178c:	000e8793          	mv	a5,t4
    80001790:	002e9e93          	slli	t4,t4,0x2
    80001794:	01d10eb3          	add	t4,sp,t4
    80001798:	fff00a13          	li	s4,-1
    8000179c:	00900b13          	li	s6,9
    800017a0:	00a00a93          	li	s5,10
    800017a4:	04000993          	li	s3,64
    800017a8:	00100b93          	li	s7,1
    800017ac:	e74788e3          	beq	a5,s4,8000161c <vprintfmt.constprop.2+0x5c>
    800017b0:	000ea603          	lw	a2,0(t4)
    800017b4:	03000893          	li	a7,48
    800017b8:	00cb7463          	bleu	a2,s6,800017c0 <vprintfmt.constprop.2+0x200>
    800017bc:	05700893          	li	a7,87
    800017c0:	04022303          	lw	t1,64(tp) # 40 <buflen.2366>
    800017c4:	0116063b          	addw	a2,a2,a7
    800017c8:	0013089b          	addiw	a7,t1,1
    800017cc:	006e0333          	add	t1,t3,t1
    800017d0:	05122023          	sw	a7,64(tp) # 40 <buflen.2366>
    800017d4:	00c30023          	sb	a2,0(t1)
    800017d8:	39560a63          	beq	a2,s5,80001b6c <vprintfmt.constprop.2+0x5ac>
    800017dc:	39388863          	beq	a7,s3,80001b6c <vprintfmt.constprop.2+0x5ac>
    800017e0:	ffce8e93          	addi	t4,t4,-4
    800017e4:	fff7879b          	addiw	a5,a5,-1
    800017e8:	fc5ff06f          	j	800017ac <vprintfmt.constprop.2+0x1ec>
    800017ec:	0d36b023          	sd	s3,192(a3)
    800017f0:	0d56b423          	sd	s5,200(a3)
    800017f4:	0dc6b823          	sd	t3,208(a3)
    800017f8:	0d36bc23          	sd	s3,216(a3)
    800017fc:	0ff0000f          	fence
    80001800:	00000617          	auipc	a2,0x0
    80001804:	80763023          	sd	t2,-2048(a2) # 80001000 <tohost>
    80001808:	00073603          	ld	a2,0(a4)
    8000180c:	fe060ee3          	beqz	a2,80001808 <vprintfmt.constprop.2+0x248>
    80001810:	00000617          	auipc	a2,0x0
    80001814:	82063823          	sd	zero,-2000(a2) # 80001040 <fromhost>
    80001818:	0ff0000f          	fence
    8000181c:	0c06b603          	ld	a2,192(a3)
    80001820:	04022023          	sw	zero,64(tp) # 40 <buflen.2366>
    80001824:	fff8889b          	addiw	a7,a7,-1
    80001828:	f5dff06f          	j	80001784 <vprintfmt.constprop.2+0x1c4>
    8000182c:	04022603          	lw	a2,64(tp) # 40 <buflen.2366>
    80001830:	03000793          	li	a5,48
    80001834:	04000993          	li	s3,64
    80001838:	0016031b          	addiw	t1,a2,1
    8000183c:	00ce0a33          	add	s4,t3,a2
    80001840:	00fa0023          	sb	a5,0(s4)
    80001844:	04622023          	sw	t1,64(tp) # 40 <buflen.2366>
    80001848:	00858793          	addi	a5,a1,8
    8000184c:	4d330c63          	beq	t1,s3,80001d24 <vprintfmt.constprop.2+0x764>
    80001850:	00260a1b          	addiw	s4,a2,2
    80001854:	006e0333          	add	t1,t3,t1
    80001858:	07800613          	li	a2,120
    8000185c:	00c30023          	sb	a2,0(t1)
    80001860:	05422023          	sw	s4,64(tp) # 40 <buflen.2366>
    80001864:	01000313          	li	t1,16
    80001868:	eb3a1ee3          	bne	s4,s3,80001724 <vprintfmt.constprop.2+0x164>
    8000186c:	1146b023          	sd	s4,256(a3)
    80001870:	00100613          	li	a2,1
    80001874:	10c6b423          	sd	a2,264(a3)
    80001878:	11c6b823          	sd	t3,272(a3)
    8000187c:	1146bc23          	sd	s4,280(a3)
    80001880:	0ff0000f          	fence
    80001884:	10068613          	addi	a2,a3,256
    80001888:	fffff317          	auipc	t1,0xfffff
    8000188c:	76c33c23          	sd	a2,1912(t1) # 80001000 <tohost>
    80001890:	00073603          	ld	a2,0(a4)
    80001894:	fe060ee3          	beqz	a2,80001890 <vprintfmt.constprop.2+0x2d0>
    80001898:	fffff617          	auipc	a2,0xfffff
    8000189c:	7a063423          	sd	zero,1960(a2) # 80001040 <fromhost>
    800018a0:	0ff0000f          	fence
    800018a4:	1006b603          	ld	a2,256(a3)
    800018a8:	04022023          	sw	zero,64(tp) # 40 <buflen.2366>
    800018ac:	01000313          	li	t1,16
    800018b0:	e75ff06f          	j	80001724 <vprintfmt.constprop.2+0x164>
    800018b4:	0005b303          	ld	t1,0(a1)
    800018b8:	00858593          	addi	a1,a1,8
    800018bc:	4a030e63          	beqz	t1,80001d78 <vprintfmt.constprop.2+0x7b8>
    800018c0:	2f105a63          	blez	a7,80001bb4 <vprintfmt.constprop.2+0x5f4>
    800018c4:	02d00793          	li	a5,45
    800018c8:	44fe8663          	beq	t4,a5,80001d14 <vprintfmt.constprop.2+0x754>
    800018cc:	00088a9b          	sext.w	s5,a7
    800018d0:	4c098063          	beqz	s3,80001d90 <vprintfmt.constprop.2+0x7d0>
    800018d4:	00034783          	lbu	a5,0(t1)
    800018d8:	4a078c63          	beqz	a5,80001d90 <vprintfmt.constprop.2+0x7d0>
    800018dc:	00130793          	addi	a5,t1,1
    800018e0:	01330a33          	add	s4,t1,s3
    800018e4:	52fa0863          	beq	s4,a5,80001e14 <vprintfmt.constprop.2+0x854>
    800018e8:	00178613          	addi	a2,a5,1
    800018ec:	fff64883          	lbu	a7,-1(a2)
    800018f0:	2a088c63          	beqz	a7,80001ba8 <vprintfmt.constprop.2+0x5e8>
    800018f4:	00060793          	mv	a5,a2
    800018f8:	fedff06f          	j	800018e4 <vprintfmt.constprop.2+0x324>
    800018fc:	00100613          	li	a2,1
    80001900:	00a00313          	li	t1,10
    80001904:	00858793          	addi	a5,a1,8
    80001908:	e1664ee3          	blt	a2,s6,80001724 <vprintfmt.constprop.2+0x164>
    8000190c:	e00b1ce3          	bnez	s6,80001724 <vprintfmt.constprop.2+0x164>
    80001910:	0005e603          	lwu	a2,0(a1)
    80001914:	00078593          	mv	a1,a5
    80001918:	e15ff06f          	j	8000172c <vprintfmt.constprop.2+0x16c>
    8000191c:	00164303          	lbu	t1,1(a2)
    80001920:	00050613          	mv	a2,a0
    80001924:	da1ff06f          	j	800016c4 <vprintfmt.constprop.2+0x104>
    80001928:	04022783          	lw	a5,64(tp) # 40 <buflen.2366>
    8000192c:	02500893          	li	a7,37
    80001930:	04000313          	li	t1,64
    80001934:	0017861b          	addiw	a2,a5,1
    80001938:	00fe07b3          	add	a5,t3,a5
    8000193c:	04c22023          	sw	a2,64(tp) # 40 <buflen.2366>
    80001940:	01178023          	sb	a7,0(a5)
    80001944:	cc661ce3          	bne	a2,t1,8000161c <vprintfmt.constprop.2+0x5c>
    80001948:	04c6b023          	sd	a2,64(a3)
    8000194c:	00100793          	li	a5,1
    80001950:	04f6b423          	sd	a5,72(a3)
    80001954:	05c6b823          	sd	t3,80(a3)
    80001958:	04c6bc23          	sd	a2,88(a3)
    8000195c:	0ff0000f          	fence
    80001960:	04068793          	addi	a5,a3,64
    80001964:	fffff617          	auipc	a2,0xfffff
    80001968:	68f63e23          	sd	a5,1692(a2) # 80001000 <tohost>
    8000196c:	00073783          	ld	a5,0(a4)
    80001970:	fe078ee3          	beqz	a5,8000196c <vprintfmt.constprop.2+0x3ac>
    80001974:	fffff797          	auipc	a5,0xfffff
    80001978:	6c07b623          	sd	zero,1740(a5) # 80001040 <fromhost>
    8000197c:	0ff0000f          	fence
    80001980:	0406b783          	ld	a5,64(a3)
    80001984:	04022023          	sw	zero,64(tp) # 40 <buflen.2366>
    80001988:	c95ff06f          	j	8000161c <vprintfmt.constprop.2+0x5c>
    8000198c:	01000313          	li	t1,16
    80001990:	d89ff06f          	j	80001718 <vprintfmt.constprop.2+0x158>
    80001994:	0005a983          	lw	s3,0(a1)
    80001998:	00164303          	lbu	t1,1(a2)
    8000199c:	00858593          	addi	a1,a1,8
    800019a0:	00050613          	mv	a2,a0
    800019a4:	d208d0e3          	bgez	a7,800016c4 <vprintfmt.constprop.2+0x104>
    800019a8:	00098893          	mv	a7,s3
    800019ac:	fff00993          	li	s3,-1
    800019b0:	d15ff06f          	j	800016c4 <vprintfmt.constprop.2+0x104>
    800019b4:	00164303          	lbu	t1,1(a2)
    800019b8:	02d00e93          	li	t4,45
    800019bc:	00050613          	mv	a2,a0
    800019c0:	d05ff06f          	j	800016c4 <vprintfmt.constprop.2+0x104>
    800019c4:	fff8c793          	not	a5,a7
    800019c8:	43f7d793          	srai	a5,a5,0x3f
    800019cc:	00f8f8b3          	and	a7,a7,a5
    800019d0:	00164303          	lbu	t1,1(a2)
    800019d4:	0008889b          	sext.w	a7,a7
    800019d8:	00050613          	mv	a2,a0
    800019dc:	ce9ff06f          	j	800016c4 <vprintfmt.constprop.2+0x104>
    800019e0:	00164303          	lbu	t1,1(a2)
    800019e4:	03000e93          	li	t4,48
    800019e8:	00050613          	mv	a2,a0
    800019ec:	cd9ff06f          	j	800016c4 <vprintfmt.constprop.2+0x104>
    800019f0:	fd03099b          	addiw	s3,t1,-48
    800019f4:	00164303          	lbu	t1,1(a2)
    800019f8:	00050613          	mv	a2,a0
    800019fc:	fd03079b          	addiw	a5,t1,-48
    80001a00:	00030c1b          	sext.w	s8,t1
    80001a04:	fafbe0e3          	bltu	s7,a5,800019a4 <vprintfmt.constprop.2+0x3e4>
    80001a08:	00160613          	addi	a2,a2,1
    80001a0c:	0029979b          	slliw	a5,s3,0x2
    80001a10:	00064303          	lbu	t1,0(a2)
    80001a14:	013789bb          	addw	s3,a5,s3
    80001a18:	0019999b          	slliw	s3,s3,0x1
    80001a1c:	018989bb          	addw	s3,s3,s8
    80001a20:	fd03079b          	addiw	a5,t1,-48
    80001a24:	fd09899b          	addiw	s3,s3,-48
    80001a28:	00030c1b          	sext.w	s8,t1
    80001a2c:	fcfbfee3          	bleu	a5,s7,80001a08 <vprintfmt.constprop.2+0x448>
    80001a30:	f75ff06f          	j	800019a4 <vprintfmt.constprop.2+0x3e4>
    80001a34:	04022603          	lw	a2,64(tp) # 40 <buflen.2366>
    80001a38:	0005a883          	lw	a7,0(a1)
    80001a3c:	00a00313          	li	t1,10
    80001a40:	0016079b          	addiw	a5,a2,1
    80001a44:	00ce0633          	add	a2,t3,a2
    80001a48:	01160023          	sb	a7,0(a2)
    80001a4c:	04f22023          	sw	a5,64(tp) # 40 <buflen.2366>
    80001a50:	00858613          	addi	a2,a1,8
    80001a54:	00688863          	beq	a7,t1,80001a64 <vprintfmt.constprop.2+0x4a4>
    80001a58:	04000893          	li	a7,64
    80001a5c:	00060593          	mv	a1,a2
    80001a60:	bb179ee3          	bne	a5,a7,8000161c <vprintfmt.constprop.2+0x5c>
    80001a64:	04000593          	li	a1,64
    80001a68:	28b6b023          	sd	a1,640(a3)
    80001a6c:	00100593          	li	a1,1
    80001a70:	28b6b423          	sd	a1,648(a3)
    80001a74:	29c6b823          	sd	t3,656(a3)
    80001a78:	28f6bc23          	sd	a5,664(a3)
    80001a7c:	0ff0000f          	fence
    80001a80:	28068793          	addi	a5,a3,640
    80001a84:	fffff597          	auipc	a1,0xfffff
    80001a88:	56f5be23          	sd	a5,1404(a1) # 80001000 <tohost>
    80001a8c:	00073783          	ld	a5,0(a4)
    80001a90:	fe078ee3          	beqz	a5,80001a8c <vprintfmt.constprop.2+0x4cc>
    80001a94:	fffff797          	auipc	a5,0xfffff
    80001a98:	5a07b623          	sd	zero,1452(a5) # 80001040 <fromhost>
    80001a9c:	0ff0000f          	fence
    80001aa0:	2806b783          	ld	a5,640(a3)
    80001aa4:	04022023          	sw	zero,64(tp) # 40 <buflen.2366>
    80001aa8:	00060593          	mv	a1,a2
    80001aac:	b71ff06f          	j	8000161c <vprintfmt.constprop.2+0x5c>
    80001ab0:	00100793          	li	a5,1
    80001ab4:	00858993          	addi	s3,a1,8
    80001ab8:	2167d663          	ble	s6,a5,80001cc4 <vprintfmt.constprop.2+0x704>
    80001abc:	0005b603          	ld	a2,0(a1)
    80001ac0:	02065463          	bgez	a2,80001ae8 <vprintfmt.constprop.2+0x528>
    80001ac4:	04022783          	lw	a5,64(tp) # 40 <buflen.2366>
    80001ac8:	02d00313          	li	t1,45
    80001acc:	04000a13          	li	s4,64
    80001ad0:	0017859b          	addiw	a1,a5,1
    80001ad4:	00fe07b3          	add	a5,t3,a5
    80001ad8:	04b22023          	sw	a1,64(tp) # 40 <buflen.2366>
    80001adc:	00678023          	sb	t1,0(a5)
    80001ae0:	1f458863          	beq	a1,s4,80001cd0 <vprintfmt.constprop.2+0x710>
    80001ae4:	40c00633          	neg	a2,a2
    80001ae8:	00098593          	mv	a1,s3
    80001aec:	00a00313          	li	t1,10
    80001af0:	c3dff06f          	j	8000172c <vprintfmt.constprop.2+0x16c>
    80001af4:	00164303          	lbu	t1,1(a2)
    80001af8:	001b0b1b          	addiw	s6,s6,1
    80001afc:	00050613          	mv	a2,a0
    80001b00:	bc5ff06f          	j	800016c4 <vprintfmt.constprop.2+0x104>
    80001b04:	04022783          	lw	a5,64(tp) # 40 <buflen.2366>
    80001b08:	02500513          	li	a0,37
    80001b0c:	04000893          	li	a7,64
    80001b10:	0017861b          	addiw	a2,a5,1
    80001b14:	00fe07b3          	add	a5,t3,a5
    80001b18:	00a78023          	sb	a0,0(a5)
    80001b1c:	04c22023          	sw	a2,64(tp) # 40 <buflen.2366>
    80001b20:	000a8513          	mv	a0,s5
    80001b24:	af161ce3          	bne	a2,a7,8000161c <vprintfmt.constprop.2+0x5c>
    80001b28:	00c6b023          	sd	a2,0(a3)
    80001b2c:	00100793          	li	a5,1
    80001b30:	00f6b423          	sd	a5,8(a3)
    80001b34:	01c6b823          	sd	t3,16(a3)
    80001b38:	00c6bc23          	sd	a2,24(a3)
    80001b3c:	0ff0000f          	fence
    80001b40:	fffff797          	auipc	a5,0xfffff
    80001b44:	4cd7b023          	sd	a3,1216(a5) # 80001000 <tohost>
    80001b48:	00073783          	ld	a5,0(a4)
    80001b4c:	fe078ee3          	beqz	a5,80001b48 <vprintfmt.constprop.2+0x588>
    80001b50:	fffff797          	auipc	a5,0xfffff
    80001b54:	4e07b823          	sd	zero,1264(a5) # 80001040 <fromhost>
    80001b58:	0ff0000f          	fence
    80001b5c:	0006b783          	ld	a5,0(a3)
    80001b60:	04022023          	sw	zero,64(tp) # 40 <buflen.2366>
    80001b64:	000a8513          	mv	a0,s5
    80001b68:	ab5ff06f          	j	8000161c <vprintfmt.constprop.2+0x5c>
    80001b6c:	0936b023          	sd	s3,128(a3)
    80001b70:	0976b423          	sd	s7,136(a3)
    80001b74:	09c6b823          	sd	t3,144(a3)
    80001b78:	0916bc23          	sd	a7,152(a3)
    80001b7c:	0ff0000f          	fence
    80001b80:	fffff617          	auipc	a2,0xfffff
    80001b84:	48563023          	sd	t0,1152(a2) # 80001000 <tohost>
    80001b88:	00073603          	ld	a2,0(a4)
    80001b8c:	fe060ee3          	beqz	a2,80001b88 <vprintfmt.constprop.2+0x5c8>
    80001b90:	fffff617          	auipc	a2,0xfffff
    80001b94:	4a063823          	sd	zero,1200(a2) # 80001040 <fromhost>
    80001b98:	0ff0000f          	fence
    80001b9c:	0806b603          	ld	a2,128(a3)
    80001ba0:	04022023          	sw	zero,64(tp) # 40 <buflen.2366>
    80001ba4:	c3dff06f          	j	800017e0 <vprintfmt.constprop.2+0x220>
    80001ba8:	406788b3          	sub	a7,a5,t1
    80001bac:	411a88bb          	subw	a7,s5,a7
    80001bb0:	1f104063          	bgtz	a7,80001d90 <vprintfmt.constprop.2+0x7d0>
    80001bb4:	00034a03          	lbu	s4,0(t1)
    80001bb8:	000a0e9b          	sext.w	t4,s4
    80001bbc:	a60e80e3          	beqz	t4,8000161c <vprintfmt.constprop.2+0x5c>
    80001bc0:	fff00c13          	li	s8,-1
    80001bc4:	00a00b13          	li	s6,10
    80001bc8:	04000a93          	li	s5,64
    80001bcc:	00100b93          	li	s7,1
    80001bd0:	0e09d463          	bgez	s3,80001cb8 <vprintfmt.constprop.2+0x6f8>
    80001bd4:	04022603          	lw	a2,64(tp) # 40 <buflen.2366>
    80001bd8:	0016079b          	addiw	a5,a2,1
    80001bdc:	00ce0633          	add	a2,t3,a2
    80001be0:	04f22023          	sw	a5,64(tp) # 40 <buflen.2366>
    80001be4:	01460023          	sb	s4,0(a2)
    80001be8:	096e8a63          	beq	t4,s6,80001c7c <vprintfmt.constprop.2+0x6bc>
    80001bec:	09578863          	beq	a5,s5,80001c7c <vprintfmt.constprop.2+0x6bc>
    80001bf0:	00130313          	addi	t1,t1,1
    80001bf4:	00034a03          	lbu	s4,0(t1)
    80001bf8:	fff8889b          	addiw	a7,a7,-1
    80001bfc:	000a0e9b          	sext.w	t4,s4
    80001c00:	fc0e98e3          	bnez	t4,80001bd0 <vprintfmt.constprop.2+0x610>
    80001c04:	a1105ce3          	blez	a7,8000161c <vprintfmt.constprop.2+0x5c>
    80001c08:	04022783          	lw	a5,64(tp) # 40 <buflen.2366>
    80001c0c:	02000e93          	li	t4,32
    80001c10:	04000313          	li	t1,64
    80001c14:	00100993          	li	s3,1
    80001c18:	00c0006f          	j	80001c24 <vprintfmt.constprop.2+0x664>
    80001c1c:	fff8889b          	addiw	a7,a7,-1
    80001c20:	9e088ee3          	beqz	a7,8000161c <vprintfmt.constprop.2+0x5c>
    80001c24:	0017861b          	addiw	a2,a5,1
    80001c28:	00fe07b3          	add	a5,t3,a5
    80001c2c:	01d78023          	sb	t4,0(a5)
    80001c30:	04c22023          	sw	a2,64(tp) # 40 <buflen.2366>
    80001c34:	0006079b          	sext.w	a5,a2
    80001c38:	fe6792e3          	bne	a5,t1,80001c1c <vprintfmt.constprop.2+0x65c>
    80001c3c:	1c66b023          	sd	t1,448(a3)
    80001c40:	1d36b423          	sd	s3,456(a3)
    80001c44:	1dc6b823          	sd	t3,464(a3)
    80001c48:	1c66bc23          	sd	t1,472(a3)
    80001c4c:	0ff0000f          	fence
    80001c50:	fffff797          	auipc	a5,0xfffff
    80001c54:	3a97b823          	sd	s1,944(a5) # 80001000 <tohost>
    80001c58:	00073783          	ld	a5,0(a4)
    80001c5c:	fe078ee3          	beqz	a5,80001c58 <vprintfmt.constprop.2+0x698>
    80001c60:	fffff797          	auipc	a5,0xfffff
    80001c64:	3e07b023          	sd	zero,992(a5) # 80001040 <fromhost>
    80001c68:	0ff0000f          	fence
    80001c6c:	1c06b783          	ld	a5,448(a3)
    80001c70:	04022023          	sw	zero,64(tp) # 40 <buflen.2366>
    80001c74:	00000793          	li	a5,0
    80001c78:	fa5ff06f          	j	80001c1c <vprintfmt.constprop.2+0x65c>
    80001c7c:	2156b023          	sd	s5,512(a3)
    80001c80:	2176b423          	sd	s7,520(a3)
    80001c84:	21c6b823          	sd	t3,528(a3)
    80001c88:	20f6bc23          	sd	a5,536(a3)
    80001c8c:	0ff0000f          	fence
    80001c90:	fffff797          	auipc	a5,0xfffff
    80001c94:	3687b823          	sd	s0,880(a5) # 80001000 <tohost>
    80001c98:	00073783          	ld	a5,0(a4)
    80001c9c:	fe078ee3          	beqz	a5,80001c98 <vprintfmt.constprop.2+0x6d8>
    80001ca0:	fffff797          	auipc	a5,0xfffff
    80001ca4:	3a07b023          	sd	zero,928(a5) # 80001040 <fromhost>
    80001ca8:	0ff0000f          	fence
    80001cac:	2006b783          	ld	a5,512(a3)
    80001cb0:	04022023          	sw	zero,64(tp) # 40 <buflen.2366>
    80001cb4:	f3dff06f          	j	80001bf0 <vprintfmt.constprop.2+0x630>
    80001cb8:	fff9899b          	addiw	s3,s3,-1
    80001cbc:	f1899ce3          	bne	s3,s8,80001bd4 <vprintfmt.constprop.2+0x614>
    80001cc0:	f45ff06f          	j	80001c04 <vprintfmt.constprop.2+0x644>
    80001cc4:	de0b1ce3          	bnez	s6,80001abc <vprintfmt.constprop.2+0x4fc>
    80001cc8:	0005a603          	lw	a2,0(a1)
    80001ccc:	df5ff06f          	j	80001ac0 <vprintfmt.constprop.2+0x500>
    80001cd0:	18b6b023          	sd	a1,384(a3)
    80001cd4:	00100793          	li	a5,1
    80001cd8:	18f6b423          	sd	a5,392(a3)
    80001cdc:	19c6b823          	sd	t3,400(a3)
    80001ce0:	18b6bc23          	sd	a1,408(a3)
    80001ce4:	0ff0000f          	fence
    80001ce8:	18068793          	addi	a5,a3,384
    80001cec:	fffff597          	auipc	a1,0xfffff
    80001cf0:	30f5ba23          	sd	a5,788(a1) # 80001000 <tohost>
    80001cf4:	00073783          	ld	a5,0(a4)
    80001cf8:	fe078ee3          	beqz	a5,80001cf4 <vprintfmt.constprop.2+0x734>
    80001cfc:	fffff797          	auipc	a5,0xfffff
    80001d00:	3407b223          	sd	zero,836(a5) # 80001040 <fromhost>
    80001d04:	0ff0000f          	fence
    80001d08:	1806b783          	ld	a5,384(a3)
    80001d0c:	04022023          	sw	zero,64(tp) # 40 <buflen.2366>
    80001d10:	dd5ff06f          	j	80001ae4 <vprintfmt.constprop.2+0x524>
    80001d14:	00034a03          	lbu	s4,0(t1)
    80001d18:	000a0e9b          	sext.w	t4,s4
    80001d1c:	ea0e92e3          	bnez	t4,80001bc0 <vprintfmt.constprop.2+0x600>
    80001d20:	ee9ff06f          	j	80001c08 <vprintfmt.constprop.2+0x648>
    80001d24:	1466b023          	sd	t1,320(a3)
    80001d28:	00100613          	li	a2,1
    80001d2c:	14c6b423          	sd	a2,328(a3)
    80001d30:	15c6b823          	sd	t3,336(a3)
    80001d34:	1466bc23          	sd	t1,344(a3)
    80001d38:	0ff0000f          	fence
    80001d3c:	14068613          	addi	a2,a3,320
    80001d40:	fffff317          	auipc	t1,0xfffff
    80001d44:	2cc33023          	sd	a2,704(t1) # 80001000 <tohost>
    80001d48:	00073603          	ld	a2,0(a4)
    80001d4c:	fe060ee3          	beqz	a2,80001d48 <vprintfmt.constprop.2+0x788>
    80001d50:	fffff617          	auipc	a2,0xfffff
    80001d54:	2e063823          	sd	zero,752(a2) # 80001040 <fromhost>
    80001d58:	0ff0000f          	fence
    80001d5c:	1406b603          	ld	a2,320(a3)
    80001d60:	01000313          	li	t1,16
    80001d64:	00100613          	li	a2,1
    80001d68:	04c22023          	sw	a2,64(tp) # 40 <buflen.2366>
    80001d6c:	07800613          	li	a2,120
    80001d70:	00ce0023          	sb	a2,0(t3)
    80001d74:	9b1ff06f          	j	80001724 <vprintfmt.constprop.2+0x164>
    80001d78:	09105463          	blez	a7,80001e00 <vprintfmt.constprop.2+0x840>
    80001d7c:	02d00793          	li	a5,45
    80001d80:	08fe8063          	beq	t4,a5,80001e00 <vprintfmt.constprop.2+0x840>
    80001d84:	00001317          	auipc	t1,0x1
    80001d88:	0e430313          	addi	t1,t1,228 # 80002e68 <main+0x1fc>
    80001d8c:	b41ff06f          	j	800018cc <vprintfmt.constprop.2+0x30c>
    80001d90:	04022783          	lw	a5,64(tp) # 40 <buflen.2366>
    80001d94:	04000a13          	li	s4,64
    80001d98:	00100a93          	li	s5,1
    80001d9c:	00c0006f          	j	80001da8 <vprintfmt.constprop.2+0x7e8>
    80001da0:	fff8889b          	addiw	a7,a7,-1
    80001da4:	e00888e3          	beqz	a7,80001bb4 <vprintfmt.constprop.2+0x5f4>
    80001da8:	0017861b          	addiw	a2,a5,1
    80001dac:	00fe07b3          	add	a5,t3,a5
    80001db0:	01d78023          	sb	t4,0(a5)
    80001db4:	04c22023          	sw	a2,64(tp) # 40 <buflen.2366>
    80001db8:	0006079b          	sext.w	a5,a2
    80001dbc:	ff4792e3          	bne	a5,s4,80001da0 <vprintfmt.constprop.2+0x7e0>
    80001dc0:	2546b023          	sd	s4,576(a3)
    80001dc4:	2556b423          	sd	s5,584(a3)
    80001dc8:	25c6b823          	sd	t3,592(a3)
    80001dcc:	2546bc23          	sd	s4,600(a3)
    80001dd0:	0ff0000f          	fence
    80001dd4:	fffff797          	auipc	a5,0xfffff
    80001dd8:	2327b623          	sd	s2,556(a5) # 80001000 <tohost>
    80001ddc:	00073783          	ld	a5,0(a4)
    80001de0:	fe078ee3          	beqz	a5,80001ddc <vprintfmt.constprop.2+0x81c>
    80001de4:	fffff797          	auipc	a5,0xfffff
    80001de8:	2407be23          	sd	zero,604(a5) # 80001040 <fromhost>
    80001dec:	0ff0000f          	fence
    80001df0:	2406b783          	ld	a5,576(a3)
    80001df4:	04022023          	sw	zero,64(tp) # 40 <buflen.2366>
    80001df8:	00000793          	li	a5,0
    80001dfc:	fa5ff06f          	j	80001da0 <vprintfmt.constprop.2+0x7e0>
    80001e00:	00001317          	auipc	t1,0x1
    80001e04:	06830313          	addi	t1,t1,104 # 80002e68 <main+0x1fc>
    80001e08:	02800a13          	li	s4,40
    80001e0c:	02800e93          	li	t4,40
    80001e10:	db1ff06f          	j	80001bc0 <vprintfmt.constprop.2+0x600>
    80001e14:	406a08b3          	sub	a7,s4,t1
    80001e18:	411a88bb          	subw	a7,s5,a7
    80001e1c:	f7104ae3          	bgtz	a7,80001d90 <vprintfmt.constprop.2+0x7d0>
    80001e20:	d95ff06f          	j	80001bb4 <vprintfmt.constprop.2+0x5f4>

0000000080001e24 <setStats>:
    80001e24:	b00027f3          	csrr	a5,mcycle
    80001e28:	00002717          	auipc	a4,0x2
    80001e2c:	a2870713          	addi	a4,a4,-1496 # 80003850 <counters>
    80001e30:	00051663          	bnez	a0,80001e3c <setStats+0x18>
    80001e34:	00073683          	ld	a3,0(a4)
    80001e38:	40d787b3          	sub	a5,a5,a3
    80001e3c:	00002697          	auipc	a3,0x2
    80001e40:	a0f6ba23          	sd	a5,-1516(a3) # 80003850 <counters>
    80001e44:	b02027f3          	csrr	a5,minstret
    80001e48:	00051663          	bnez	a0,80001e54 <setStats+0x30>
    80001e4c:	00873703          	ld	a4,8(a4)
    80001e50:	40e787b3          	sub	a5,a5,a4
    80001e54:	00002717          	auipc	a4,0x2
    80001e58:	a0f73223          	sd	a5,-1532(a4) # 80003858 <counters+0x8>
    80001e5c:	00008067          	ret

0000000080001e60 <tohost_exit>:
    80001e60:	00151793          	slli	a5,a0,0x1
    80001e64:	0017e793          	ori	a5,a5,1
    80001e68:	fffff717          	auipc	a4,0xfffff
    80001e6c:	18f73c23          	sd	a5,408(a4) # 80001000 <tohost>
    80001e70:	0000006f          	j	80001e70 <tohost_exit+0x10>
    80001e74:	000017b7          	lui	a5,0x1
    80001e78:	a7378793          	addi	a5,a5,-1421 # a73 <_tbss_end+0xa2f>
    80001e7c:	fffff717          	auipc	a4,0xfffff
    80001e80:	18f73223          	sd	a5,388(a4) # 80001000 <tohost>
    80001e84:	0000006f          	j	80001e84 <tohost_exit+0x24>

0000000080001e88 <exit>:
    80001e88:	ff010113          	addi	sp,sp,-16
    80001e8c:	00113423          	sd	ra,8(sp)
    80001e90:	fd1ff0ef          	jal	ra,80001e60 <tohost_exit>

0000000080001e94 <abort>:
    80001e94:	10d00793          	li	a5,269
    80001e98:	fffff717          	auipc	a4,0xfffff
    80001e9c:	16f73423          	sd	a5,360(a4) # 80001000 <tohost>
    80001ea0:	0000006f          	j	80001ea0 <abort+0xc>

0000000080001ea4 <printstr>:
    80001ea4:	00054783          	lbu	a5,0(a0)
    80001ea8:	f8010113          	addi	sp,sp,-128
    80001eac:	03f10713          	addi	a4,sp,63
    80001eb0:	00050693          	mv	a3,a0
    80001eb4:	fc077713          	andi	a4,a4,-64
    80001eb8:	06078263          	beqz	a5,80001f1c <printstr+0x78>
    80001ebc:	00050613          	mv	a2,a0
    80001ec0:	00150513          	addi	a0,a0,1
    80001ec4:	00054783          	lbu	a5,0(a0)
    80001ec8:	fe079ce3          	bnez	a5,80001ec0 <printstr+0x1c>
    80001ecc:	40c50533          	sub	a0,a0,a2
    80001ed0:	04000793          	li	a5,64
    80001ed4:	00f73023          	sd	a5,0(a4)
    80001ed8:	00100793          	li	a5,1
    80001edc:	00f73423          	sd	a5,8(a4)
    80001ee0:	00d73823          	sd	a3,16(a4)
    80001ee4:	00a73c23          	sd	a0,24(a4)
    80001ee8:	0ff0000f          	fence
    80001eec:	fffff797          	auipc	a5,0xfffff
    80001ef0:	10e7ba23          	sd	a4,276(a5) # 80001000 <tohost>
    80001ef4:	fffff697          	auipc	a3,0xfffff
    80001ef8:	14c68693          	addi	a3,a3,332 # 80001040 <fromhost>
    80001efc:	0006b783          	ld	a5,0(a3)
    80001f00:	fe078ee3          	beqz	a5,80001efc <printstr+0x58>
    80001f04:	fffff797          	auipc	a5,0xfffff
    80001f08:	1207be23          	sd	zero,316(a5) # 80001040 <fromhost>
    80001f0c:	0ff0000f          	fence
    80001f10:	00073783          	ld	a5,0(a4)
    80001f14:	08010113          	addi	sp,sp,128
    80001f18:	00008067          	ret
    80001f1c:	00000513          	li	a0,0
    80001f20:	fb1ff06f          	j	80001ed0 <printstr+0x2c>

0000000080001f24 <printhex>:
    80001f24:	f6010113          	addi	sp,sp,-160
    80001f28:	00f57613          	andi	a2,a0,15
    80001f2c:	05f10693          	addi	a3,sp,95
    80001f30:	00900593          	li	a1,9
    80001f34:	fc06f693          	andi	a3,a3,-64
    80001f38:	0ff67713          	andi	a4,a2,255
    80001f3c:	03000793          	li	a5,48
    80001f40:	00c5f463          	bleu	a2,a1,80001f48 <printhex+0x24>
    80001f44:	05700793          	li	a5,87
    80001f48:	00e7873b          	addw	a4,a5,a4
    80001f4c:	00455793          	srli	a5,a0,0x4
    80001f50:	00f7f793          	andi	a5,a5,15
    80001f54:	00e10ba3          	sb	a4,23(sp)
    80001f58:	00900593          	li	a1,9
    80001f5c:	0ff7f713          	andi	a4,a5,255
    80001f60:	05700613          	li	a2,87
    80001f64:	00f5e463          	bltu	a1,a5,80001f6c <printhex+0x48>
    80001f68:	03000613          	li	a2,48
    80001f6c:	00c7073b          	addw	a4,a4,a2
    80001f70:	00855793          	srli	a5,a0,0x8
    80001f74:	00f7f793          	andi	a5,a5,15
    80001f78:	00e10b23          	sb	a4,22(sp)
    80001f7c:	00900593          	li	a1,9
    80001f80:	0ff7f713          	andi	a4,a5,255
    80001f84:	05700613          	li	a2,87
    80001f88:	00f5e463          	bltu	a1,a5,80001f90 <printhex+0x6c>
    80001f8c:	03000613          	li	a2,48
    80001f90:	00c7073b          	addw	a4,a4,a2
    80001f94:	00c55793          	srli	a5,a0,0xc
    80001f98:	00f7f793          	andi	a5,a5,15
    80001f9c:	00e10aa3          	sb	a4,21(sp)
    80001fa0:	00900593          	li	a1,9
    80001fa4:	0ff7f713          	andi	a4,a5,255
    80001fa8:	05700613          	li	a2,87
    80001fac:	00f5e463          	bltu	a1,a5,80001fb4 <printhex+0x90>
    80001fb0:	03000613          	li	a2,48
    80001fb4:	00c7073b          	addw	a4,a4,a2
    80001fb8:	01055793          	srli	a5,a0,0x10
    80001fbc:	00f7f793          	andi	a5,a5,15
    80001fc0:	00e10a23          	sb	a4,20(sp)
    80001fc4:	00900593          	li	a1,9
    80001fc8:	0ff7f713          	andi	a4,a5,255
    80001fcc:	05700613          	li	a2,87
    80001fd0:	00f5e463          	bltu	a1,a5,80001fd8 <printhex+0xb4>
    80001fd4:	03000613          	li	a2,48
    80001fd8:	00c7073b          	addw	a4,a4,a2
    80001fdc:	01455793          	srli	a5,a0,0x14
    80001fe0:	00f7f793          	andi	a5,a5,15
    80001fe4:	00e109a3          	sb	a4,19(sp)
    80001fe8:	00900593          	li	a1,9
    80001fec:	0ff7f713          	andi	a4,a5,255
    80001ff0:	05700613          	li	a2,87
    80001ff4:	00f5e463          	bltu	a1,a5,80001ffc <printhex+0xd8>
    80001ff8:	03000613          	li	a2,48
    80001ffc:	00c7073b          	addw	a4,a4,a2
    80002000:	01855793          	srli	a5,a0,0x18
    80002004:	00f7f793          	andi	a5,a5,15
    80002008:	00e10923          	sb	a4,18(sp)
    8000200c:	00900593          	li	a1,9
    80002010:	0ff7f713          	andi	a4,a5,255
    80002014:	05700613          	li	a2,87
    80002018:	00f5e463          	bltu	a1,a5,80002020 <printhex+0xfc>
    8000201c:	03000613          	li	a2,48
    80002020:	00c7073b          	addw	a4,a4,a2
    80002024:	01c55793          	srli	a5,a0,0x1c
    80002028:	00f7f793          	andi	a5,a5,15
    8000202c:	00e108a3          	sb	a4,17(sp)
    80002030:	00900593          	li	a1,9
    80002034:	0ff7f713          	andi	a4,a5,255
    80002038:	05700613          	li	a2,87
    8000203c:	00f5e463          	bltu	a1,a5,80002044 <printhex+0x120>
    80002040:	03000613          	li	a2,48
    80002044:	00c7073b          	addw	a4,a4,a2
    80002048:	02055793          	srli	a5,a0,0x20
    8000204c:	00f7f793          	andi	a5,a5,15
    80002050:	00e10823          	sb	a4,16(sp)
    80002054:	00900593          	li	a1,9
    80002058:	0ff7f713          	andi	a4,a5,255
    8000205c:	05700613          	li	a2,87
    80002060:	00f5e463          	bltu	a1,a5,80002068 <printhex+0x144>
    80002064:	03000613          	li	a2,48
    80002068:	00c7073b          	addw	a4,a4,a2
    8000206c:	02455793          	srli	a5,a0,0x24
    80002070:	00f7f793          	andi	a5,a5,15
    80002074:	00e107a3          	sb	a4,15(sp)
    80002078:	00900593          	li	a1,9
    8000207c:	0ff7f713          	andi	a4,a5,255
    80002080:	05700613          	li	a2,87
    80002084:	00f5e463          	bltu	a1,a5,8000208c <printhex+0x168>
    80002088:	03000613          	li	a2,48
    8000208c:	00c7073b          	addw	a4,a4,a2
    80002090:	02855793          	srli	a5,a0,0x28
    80002094:	00f7f793          	andi	a5,a5,15
    80002098:	00e10723          	sb	a4,14(sp)
    8000209c:	00900593          	li	a1,9
    800020a0:	0ff7f713          	andi	a4,a5,255
    800020a4:	05700613          	li	a2,87
    800020a8:	00f5e463          	bltu	a1,a5,800020b0 <printhex+0x18c>
    800020ac:	03000613          	li	a2,48
    800020b0:	00c7073b          	addw	a4,a4,a2
    800020b4:	02c55793          	srli	a5,a0,0x2c
    800020b8:	00f7f793          	andi	a5,a5,15
    800020bc:	00e106a3          	sb	a4,13(sp)
    800020c0:	00900593          	li	a1,9
    800020c4:	0ff7f713          	andi	a4,a5,255
    800020c8:	05700613          	li	a2,87
    800020cc:	00f5e463          	bltu	a1,a5,800020d4 <printhex+0x1b0>
    800020d0:	03000613          	li	a2,48
    800020d4:	00c7073b          	addw	a4,a4,a2
    800020d8:	03055793          	srli	a5,a0,0x30
    800020dc:	00f7f793          	andi	a5,a5,15
    800020e0:	00e10623          	sb	a4,12(sp)
    800020e4:	00900593          	li	a1,9
    800020e8:	0ff7f713          	andi	a4,a5,255
    800020ec:	05700613          	li	a2,87
    800020f0:	00f5e463          	bltu	a1,a5,800020f8 <printhex+0x1d4>
    800020f4:	03000613          	li	a2,48
    800020f8:	00c7073b          	addw	a4,a4,a2
    800020fc:	03455793          	srli	a5,a0,0x34
    80002100:	00f7f793          	andi	a5,a5,15
    80002104:	00e105a3          	sb	a4,11(sp)
    80002108:	00900593          	li	a1,9
    8000210c:	0ff7f713          	andi	a4,a5,255
    80002110:	05700613          	li	a2,87
    80002114:	00f5e463          	bltu	a1,a5,8000211c <printhex+0x1f8>
    80002118:	03000613          	li	a2,48
    8000211c:	00c7073b          	addw	a4,a4,a2
    80002120:	03855793          	srli	a5,a0,0x38
    80002124:	00f7f793          	andi	a5,a5,15
    80002128:	00e10523          	sb	a4,10(sp)
    8000212c:	00900593          	li	a1,9
    80002130:	0ff7f713          	andi	a4,a5,255
    80002134:	05700613          	li	a2,87
    80002138:	00f5e463          	bltu	a1,a5,80002140 <printhex+0x21c>
    8000213c:	03000613          	li	a2,48
    80002140:	00c707bb          	addw	a5,a4,a2
    80002144:	03c55513          	srli	a0,a0,0x3c
    80002148:	00f104a3          	sb	a5,9(sp)
    8000214c:	00900613          	li	a2,9
    80002150:	0ff57713          	andi	a4,a0,255
    80002154:	03000793          	li	a5,48
    80002158:	00a67463          	bleu	a0,a2,80002160 <printhex+0x23c>
    8000215c:	05700793          	li	a5,87
    80002160:	00f7073b          	addw	a4,a4,a5
    80002164:	00810613          	addi	a2,sp,8
    80002168:	00e10423          	sb	a4,8(sp)
    8000216c:	00010c23          	sb	zero,24(sp)
    80002170:	00060793          	mv	a5,a2
    80002174:	00178793          	addi	a5,a5,1
    80002178:	0007c703          	lbu	a4,0(a5)
    8000217c:	fe071ce3          	bnez	a4,80002174 <printhex+0x250>
    80002180:	04000713          	li	a4,64
    80002184:	00e6b023          	sd	a4,0(a3)
    80002188:	00100713          	li	a4,1
    8000218c:	00e6b423          	sd	a4,8(a3)
    80002190:	00c6b823          	sd	a2,16(a3)
    80002194:	40c787b3          	sub	a5,a5,a2
    80002198:	00f6bc23          	sd	a5,24(a3)
    8000219c:	0ff0000f          	fence
    800021a0:	fffff797          	auipc	a5,0xfffff
    800021a4:	e6d7b023          	sd	a3,-416(a5) # 80001000 <tohost>
    800021a8:	fffff717          	auipc	a4,0xfffff
    800021ac:	e9870713          	addi	a4,a4,-360 # 80001040 <fromhost>
    800021b0:	00073783          	ld	a5,0(a4)
    800021b4:	fe078ee3          	beqz	a5,800021b0 <printhex+0x28c>
    800021b8:	fffff797          	auipc	a5,0xfffff
    800021bc:	e807b423          	sd	zero,-376(a5) # 80001040 <fromhost>
    800021c0:	0ff0000f          	fence
    800021c4:	0006b783          	ld	a5,0(a3)
    800021c8:	0a010113          	addi	sp,sp,160
    800021cc:	00008067          	ret

00000000800021d0 <printf>:
    800021d0:	fa010113          	addi	sp,sp,-96
    800021d4:	02810313          	addi	t1,sp,40
    800021d8:	02b13423          	sd	a1,40(sp)
    800021dc:	00030593          	mv	a1,t1
    800021e0:	00113c23          	sd	ra,24(sp)
    800021e4:	02c13823          	sd	a2,48(sp)
    800021e8:	02d13c23          	sd	a3,56(sp)
    800021ec:	04e13023          	sd	a4,64(sp)
    800021f0:	04f13423          	sd	a5,72(sp)
    800021f4:	05013823          	sd	a6,80(sp)
    800021f8:	05113c23          	sd	a7,88(sp)
    800021fc:	00613423          	sd	t1,8(sp)
    80002200:	bc0ff0ef          	jal	ra,800015c0 <vprintfmt.constprop.2>
    80002204:	01813083          	ld	ra,24(sp)
    80002208:	00000513          	li	a0,0
    8000220c:	06010113          	addi	sp,sp,96
    80002210:	00008067          	ret

0000000080002214 <sprintf>:
    80002214:	fa010113          	addi	sp,sp,-96
    80002218:	03010313          	addi	t1,sp,48
    8000221c:	02813023          	sd	s0,32(sp)
    80002220:	00a13423          	sd	a0,8(sp)
    80002224:	02c13823          	sd	a2,48(sp)
    80002228:	00050413          	mv	s0,a0
    8000222c:	00030613          	mv	a2,t1
    80002230:	00810513          	addi	a0,sp,8
    80002234:	02113423          	sd	ra,40(sp)
    80002238:	04f13423          	sd	a5,72(sp)
    8000223c:	02d13c23          	sd	a3,56(sp)
    80002240:	04e13023          	sd	a4,64(sp)
    80002244:	05013823          	sd	a6,80(sp)
    80002248:	05113c23          	sd	a7,88(sp)
    8000224c:	00613c23          	sd	t1,24(sp)
    80002250:	ee1fe0ef          	jal	ra,80001130 <vprintfmt.constprop.3>
    80002254:	00813783          	ld	a5,8(sp)
    80002258:	00078023          	sb	zero,0(a5)
    8000225c:	00813503          	ld	a0,8(sp)
    80002260:	02813083          	ld	ra,40(sp)
    80002264:	4085053b          	subw	a0,a0,s0
    80002268:	02013403          	ld	s0,32(sp)
    8000226c:	06010113          	addi	sp,sp,96
    80002270:	00008067          	ret

0000000080002274 <memcpy>:
    80002274:	00c5e833          	or	a6,a1,a2
    80002278:	00a86833          	or	a6,a6,a0
    8000227c:	00787813          	andi	a6,a6,7
    80002280:	00050713          	mv	a4,a0
    80002284:	00058793          	mv	a5,a1
    80002288:	00c506b3          	add	a3,a0,a2
    8000228c:	0e080263          	beqz	a6,80002370 <memcpy+0xfc>
    80002290:	12d57063          	bleu	a3,a0,800023b0 <memcpy+0x13c>
    80002294:	00850813          	addi	a6,a0,8
    80002298:	00858313          	addi	t1,a1,8
    8000229c:	0105b833          	sltu	a6,a1,a6
    800022a0:	00653333          	sltu	t1,a0,t1
    800022a4:	00a5e8b3          	or	a7,a1,a0
    800022a8:	00184813          	xori	a6,a6,1
    800022ac:	00134313          	xori	t1,t1,1
    800022b0:	0078f893          	andi	a7,a7,7
    800022b4:	00686833          	or	a6,a6,t1
    800022b8:	0018b893          	seqz	a7,a7
    800022bc:	01187833          	and	a6,a6,a7
    800022c0:	0c080863          	beqz	a6,80002390 <memcpy+0x11c>
    800022c4:	00b63813          	sltiu	a6,a2,11
    800022c8:	00184813          	xori	a6,a6,1
    800022cc:	0ff87813          	andi	a6,a6,255
    800022d0:	0c080063          	beqz	a6,80002390 <memcpy+0x11c>
    800022d4:	00365313          	srli	t1,a2,0x3
    800022d8:	00000813          	li	a6,0
    800022dc:	0007b883          	ld	a7,0(a5)
    800022e0:	00180813          	addi	a6,a6,1
    800022e4:	00878793          	addi	a5,a5,8
    800022e8:	01173023          	sd	a7,0(a4)
    800022ec:	00870713          	addi	a4,a4,8
    800022f0:	fe6866e3          	bltu	a6,t1,800022dc <memcpy+0x68>
    800022f4:	ff867713          	andi	a4,a2,-8
    800022f8:	00e585b3          	add	a1,a1,a4
    800022fc:	00e507b3          	add	a5,a0,a4
    80002300:	0ae60663          	beq	a2,a4,800023ac <memcpy+0x138>
    80002304:	0005c603          	lbu	a2,0(a1)
    80002308:	00178713          	addi	a4,a5,1
    8000230c:	00c78023          	sb	a2,0(a5)
    80002310:	08d77e63          	bleu	a3,a4,800023ac <memcpy+0x138>
    80002314:	0015c603          	lbu	a2,1(a1)
    80002318:	00278713          	addi	a4,a5,2
    8000231c:	00c780a3          	sb	a2,1(a5)
    80002320:	08d77663          	bleu	a3,a4,800023ac <memcpy+0x138>
    80002324:	0025c603          	lbu	a2,2(a1)
    80002328:	00378713          	addi	a4,a5,3
    8000232c:	00c78123          	sb	a2,2(a5)
    80002330:	06d77e63          	bleu	a3,a4,800023ac <memcpy+0x138>
    80002334:	0035c603          	lbu	a2,3(a1)
    80002338:	00478713          	addi	a4,a5,4
    8000233c:	00c781a3          	sb	a2,3(a5)
    80002340:	06d77663          	bleu	a3,a4,800023ac <memcpy+0x138>
    80002344:	0045c603          	lbu	a2,4(a1)
    80002348:	00578713          	addi	a4,a5,5
    8000234c:	00c78223          	sb	a2,4(a5)
    80002350:	04d77e63          	bleu	a3,a4,800023ac <memcpy+0x138>
    80002354:	0055c603          	lbu	a2,5(a1)
    80002358:	00678713          	addi	a4,a5,6
    8000235c:	00c782a3          	sb	a2,5(a5)
    80002360:	04d77663          	bleu	a3,a4,800023ac <memcpy+0x138>
    80002364:	0065c703          	lbu	a4,6(a1)
    80002368:	00e78323          	sb	a4,6(a5)
    8000236c:	00008067          	ret
    80002370:	02d57e63          	bleu	a3,a0,800023ac <memcpy+0x138>
    80002374:	00050793          	mv	a5,a0
    80002378:	00858593          	addi	a1,a1,8
    8000237c:	ff85b703          	ld	a4,-8(a1)
    80002380:	00878793          	addi	a5,a5,8
    80002384:	fee7bc23          	sd	a4,-8(a5)
    80002388:	fed7e8e3          	bltu	a5,a3,80002378 <memcpy+0x104>
    8000238c:	00008067          	ret
    80002390:	00c58633          	add	a2,a1,a2
    80002394:	00050793          	mv	a5,a0
    80002398:	00158593          	addi	a1,a1,1
    8000239c:	fff5c703          	lbu	a4,-1(a1)
    800023a0:	00178793          	addi	a5,a5,1
    800023a4:	fee78fa3          	sb	a4,-1(a5)
    800023a8:	fec598e3          	bne	a1,a2,80002398 <memcpy+0x124>
    800023ac:	00008067          	ret
    800023b0:	00008067          	ret

00000000800023b4 <memset>:
    800023b4:	00c567b3          	or	a5,a0,a2
    800023b8:	0077f793          	andi	a5,a5,7
    800023bc:	00c50e33          	add	t3,a0,a2
    800023c0:	1a078263          	beqz	a5,80002564 <memset+0x1b0>
    800023c4:	1dc57a63          	bleu	t3,a0,80002598 <memset+0x1e4>
    800023c8:	40a007b3          	neg	a5,a0
    800023cc:	0077f793          	andi	a5,a5,7
    800023d0:	00778713          	addi	a4,a5,7
    800023d4:	00900693          	li	a3,9
    800023d8:	0ff5f593          	andi	a1,a1,255
    800023dc:	00150e93          	addi	t4,a0,1
    800023e0:	40ae0f33          	sub	t5,t3,a0
    800023e4:	fff60613          	addi	a2,a2,-1
    800023e8:	00d77463          	bleu	a3,a4,800023f0 <memset+0x3c>
    800023ec:	00900713          	li	a4,9
    800023f0:	1ae66c63          	bltu	a2,a4,800025a8 <memset+0x1f4>
    800023f4:	1a078463          	beqz	a5,8000259c <memset+0x1e8>
    800023f8:	00b50023          	sb	a1,0(a0)
    800023fc:	00100713          	li	a4,1
    80002400:	04e78e63          	beq	a5,a4,8000245c <memset+0xa8>
    80002404:	00b500a3          	sb	a1,1(a0)
    80002408:	00200713          	li	a4,2
    8000240c:	00250e93          	addi	t4,a0,2
    80002410:	04e78663          	beq	a5,a4,8000245c <memset+0xa8>
    80002414:	00b50123          	sb	a1,2(a0)
    80002418:	00300713          	li	a4,3
    8000241c:	00350e93          	addi	t4,a0,3
    80002420:	02e78e63          	beq	a5,a4,8000245c <memset+0xa8>
    80002424:	00b501a3          	sb	a1,3(a0)
    80002428:	00400713          	li	a4,4
    8000242c:	00450e93          	addi	t4,a0,4
    80002430:	02e78663          	beq	a5,a4,8000245c <memset+0xa8>
    80002434:	00b50223          	sb	a1,4(a0)
    80002438:	00500713          	li	a4,5
    8000243c:	00550e93          	addi	t4,a0,5
    80002440:	00e78e63          	beq	a5,a4,8000245c <memset+0xa8>
    80002444:	00b502a3          	sb	a1,5(a0)
    80002448:	00700713          	li	a4,7
    8000244c:	00650e93          	addi	t4,a0,6
    80002450:	00e79663          	bne	a5,a4,8000245c <memset+0xa8>
    80002454:	00750e93          	addi	t4,a0,7
    80002458:	00b50323          	sb	a1,6(a0)
    8000245c:	00859713          	slli	a4,a1,0x8
    80002460:	00e5e733          	or	a4,a1,a4
    80002464:	01059313          	slli	t1,a1,0x10
    80002468:	00676333          	or	t1,a4,t1
    8000246c:	01859893          	slli	a7,a1,0x18
    80002470:	02059813          	slli	a6,a1,0x20
    80002474:	011368b3          	or	a7,t1,a7
    80002478:	0108e833          	or	a6,a7,a6
    8000247c:	02859613          	slli	a2,a1,0x28
    80002480:	00c86633          	or	a2,a6,a2
    80002484:	03059693          	slli	a3,a1,0x30
    80002488:	00d666b3          	or	a3,a2,a3
    8000248c:	40ff0833          	sub	a6,t5,a5
    80002490:	03859713          	slli	a4,a1,0x38
    80002494:	00e6e733          	or	a4,a3,a4
    80002498:	00385613          	srli	a2,a6,0x3
    8000249c:	00f507b3          	add	a5,a0,a5
    800024a0:	00000693          	li	a3,0
    800024a4:	00e7b023          	sd	a4,0(a5)
    800024a8:	00168693          	addi	a3,a3,1
    800024ac:	00878793          	addi	a5,a5,8
    800024b0:	fec6eae3          	bltu	a3,a2,800024a4 <memset+0xf0>
    800024b4:	ff887713          	andi	a4,a6,-8
    800024b8:	00ee87b3          	add	a5,t4,a4
    800024bc:	0ee80463          	beq	a6,a4,800025a4 <memset+0x1f0>
    800024c0:	00b78023          	sb	a1,0(a5)
    800024c4:	00178713          	addi	a4,a5,1
    800024c8:	09c77c63          	bleu	t3,a4,80002560 <memset+0x1ac>
    800024cc:	00b780a3          	sb	a1,1(a5)
    800024d0:	00278713          	addi	a4,a5,2
    800024d4:	09c77663          	bleu	t3,a4,80002560 <memset+0x1ac>
    800024d8:	00b78123          	sb	a1,2(a5)
    800024dc:	00378713          	addi	a4,a5,3
    800024e0:	09c77063          	bleu	t3,a4,80002560 <memset+0x1ac>
    800024e4:	00b781a3          	sb	a1,3(a5)
    800024e8:	00478713          	addi	a4,a5,4
    800024ec:	07c77a63          	bleu	t3,a4,80002560 <memset+0x1ac>
    800024f0:	00b78223          	sb	a1,4(a5)
    800024f4:	00578713          	addi	a4,a5,5
    800024f8:	07c77463          	bleu	t3,a4,80002560 <memset+0x1ac>
    800024fc:	00b782a3          	sb	a1,5(a5)
    80002500:	00678713          	addi	a4,a5,6
    80002504:	05c77e63          	bleu	t3,a4,80002560 <memset+0x1ac>
    80002508:	00b78323          	sb	a1,6(a5)
    8000250c:	00778713          	addi	a4,a5,7
    80002510:	05c77863          	bleu	t3,a4,80002560 <memset+0x1ac>
    80002514:	00b783a3          	sb	a1,7(a5)
    80002518:	00878713          	addi	a4,a5,8
    8000251c:	05c77263          	bleu	t3,a4,80002560 <memset+0x1ac>
    80002520:	00b78423          	sb	a1,8(a5)
    80002524:	00978713          	addi	a4,a5,9
    80002528:	03c77c63          	bleu	t3,a4,80002560 <memset+0x1ac>
    8000252c:	00b784a3          	sb	a1,9(a5)
    80002530:	00a78713          	addi	a4,a5,10
    80002534:	03c77663          	bleu	t3,a4,80002560 <memset+0x1ac>
    80002538:	00b78523          	sb	a1,10(a5)
    8000253c:	00b78713          	addi	a4,a5,11
    80002540:	03c77063          	bleu	t3,a4,80002560 <memset+0x1ac>
    80002544:	00b785a3          	sb	a1,11(a5)
    80002548:	00c78713          	addi	a4,a5,12
    8000254c:	01c77a63          	bleu	t3,a4,80002560 <memset+0x1ac>
    80002550:	00b78623          	sb	a1,12(a5)
    80002554:	00d78713          	addi	a4,a5,13
    80002558:	01c77463          	bleu	t3,a4,80002560 <memset+0x1ac>
    8000255c:	00b786a3          	sb	a1,13(a5)
    80002560:	00008067          	ret
    80002564:	0ff5f593          	andi	a1,a1,255
    80002568:	00859713          	slli	a4,a1,0x8
    8000256c:	00e5e733          	or	a4,a1,a4
    80002570:	01071593          	slli	a1,a4,0x10
    80002574:	00b76733          	or	a4,a4,a1
    80002578:	02071793          	slli	a5,a4,0x20
    8000257c:	00f76733          	or	a4,a4,a5
    80002580:	ffc570e3          	bleu	t3,a0,80002560 <memset+0x1ac>
    80002584:	00050793          	mv	a5,a0
    80002588:	00878793          	addi	a5,a5,8
    8000258c:	fee7bc23          	sd	a4,-8(a5)
    80002590:	ffc7ece3          	bltu	a5,t3,80002588 <memset+0x1d4>
    80002594:	00008067          	ret
    80002598:	00008067          	ret
    8000259c:	00050e93          	mv	t4,a0
    800025a0:	ebdff06f          	j	8000245c <memset+0xa8>
    800025a4:	00008067          	ret
    800025a8:	00050793          	mv	a5,a0
    800025ac:	f15ff06f          	j	800024c0 <memset+0x10c>

00000000800025b0 <_init>:
    800025b0:	fe010113          	addi	sp,sp,-32
    800025b4:	00813823          	sd	s0,16(sp)
    800025b8:	00913423          	sd	s1,8(sp)
    800025bc:	fe020493          	addi	s1,tp,-32 # ffffffffffffffe0 <_tdata_begin>
    800025c0:	fe020413          	addi	s0,tp,-32 # ffffffffffffffe0 <_tdata_begin>
    800025c4:	40848433          	sub	s0,s1,s0
    800025c8:	00020513          	mv	a0,tp
    800025cc:	00040613          	mv	a2,s0
    800025d0:	00001597          	auipc	a1,0x1
    800025d4:	29058593          	addi	a1,a1,656 # 80003860 <_tls_data>
    800025d8:	00113c23          	sd	ra,24(sp)
    800025dc:	01213023          	sd	s2,0(sp)
    800025e0:	00020913          	mv	s2,tp
    800025e4:	c91ff0ef          	jal	ra,80002274 <memcpy>
    800025e8:	04420613          	addi	a2,tp,68 # 44 <_tbss_end>
    800025ec:	40960633          	sub	a2,a2,s1
    800025f0:	00000593          	li	a1,0
    800025f4:	00890533          	add	a0,s2,s0
    800025f8:	dbdff0ef          	jal	ra,800023b4 <memset>
    800025fc:	00000593          	li	a1,0
    80002600:	00000513          	li	a0,0
    80002604:	668000ef          	jal	ra,80002c6c <main>
    80002608:	859ff0ef          	jal	ra,80001e60 <tohost_exit>

000000008000260c <strlen>:
    8000260c:	00054783          	lbu	a5,0(a0)
    80002610:	00050713          	mv	a4,a0
    80002614:	00078c63          	beqz	a5,8000262c <strlen+0x20>
    80002618:	00150513          	addi	a0,a0,1
    8000261c:	00054783          	lbu	a5,0(a0)
    80002620:	fe079ce3          	bnez	a5,80002618 <strlen+0xc>
    80002624:	40e50533          	sub	a0,a0,a4
    80002628:	00008067          	ret
    8000262c:	00000513          	li	a0,0
    80002630:	00008067          	ret

0000000080002634 <strnlen>:
    80002634:	00050713          	mv	a4,a0
    80002638:	02058663          	beqz	a1,80002664 <strnlen+0x30>
    8000263c:	00054783          	lbu	a5,0(a0)
    80002640:	02078263          	beqz	a5,80002664 <strnlen+0x30>
    80002644:	00b505b3          	add	a1,a0,a1
    80002648:	00c0006f          	j	80002654 <strnlen+0x20>
    8000264c:	00054783          	lbu	a5,0(a0)
    80002650:	00078663          	beqz	a5,8000265c <strnlen+0x28>
    80002654:	00150513          	addi	a0,a0,1
    80002658:	feb51ae3          	bne	a0,a1,8000264c <strnlen+0x18>
    8000265c:	40e50533          	sub	a0,a0,a4
    80002660:	00008067          	ret
    80002664:	00000513          	li	a0,0
    80002668:	00008067          	ret

000000008000266c <strcmp>:
    8000266c:	00150513          	addi	a0,a0,1
    80002670:	fff54783          	lbu	a5,-1(a0)
    80002674:	00158593          	addi	a1,a1,1
    80002678:	fff5c703          	lbu	a4,-1(a1)
    8000267c:	00078a63          	beqz	a5,80002690 <strcmp+0x24>
    80002680:	fee786e3          	beq	a5,a4,8000266c <strcmp>
    80002684:	0007851b          	sext.w	a0,a5
    80002688:	40e5053b          	subw	a0,a0,a4
    8000268c:	00008067          	ret
    80002690:	00000513          	li	a0,0
    80002694:	ff5ff06f          	j	80002688 <strcmp+0x1c>

0000000080002698 <strcpy>:
    80002698:	00050793          	mv	a5,a0
    8000269c:	00158593          	addi	a1,a1,1
    800026a0:	fff5c703          	lbu	a4,-1(a1)
    800026a4:	00178793          	addi	a5,a5,1
    800026a8:	fee78fa3          	sb	a4,-1(a5)
    800026ac:	fe0718e3          	bnez	a4,8000269c <strcpy+0x4>
    800026b0:	00008067          	ret

00000000800026b4 <atol>:
    800026b4:	00054683          	lbu	a3,0(a0)
    800026b8:	02000793          	li	a5,32
    800026bc:	00f69863          	bne	a3,a5,800026cc <atol+0x18>
    800026c0:	00150513          	addi	a0,a0,1
    800026c4:	00054683          	lbu	a3,0(a0)
    800026c8:	fef68ce3          	beq	a3,a5,800026c0 <atol+0xc>
    800026cc:	fd56879b          	addiw	a5,a3,-43
    800026d0:	0fd7f793          	andi	a5,a5,253
    800026d4:	04078063          	beqz	a5,80002714 <atol+0x60>
    800026d8:	00050793          	mv	a5,a0
    800026dc:	00000593          	li	a1,0
    800026e0:	04068863          	beqz	a3,80002730 <atol+0x7c>
    800026e4:	00000513          	li	a0,0
    800026e8:	00178793          	addi	a5,a5,1
    800026ec:	fd06861b          	addiw	a2,a3,-48
    800026f0:	00251713          	slli	a4,a0,0x2
    800026f4:	0007c683          	lbu	a3,0(a5)
    800026f8:	00a70533          	add	a0,a4,a0
    800026fc:	00151513          	slli	a0,a0,0x1
    80002700:	00a60533          	add	a0,a2,a0
    80002704:	fe0692e3          	bnez	a3,800026e8 <atol+0x34>
    80002708:	00058463          	beqz	a1,80002710 <atol+0x5c>
    8000270c:	40a00533          	neg	a0,a0
    80002710:	00008067          	ret
    80002714:	fd368593          	addi	a1,a3,-45
    80002718:	00154683          	lbu	a3,1(a0)
    8000271c:	0015b593          	seqz	a1,a1
    80002720:	00150793          	addi	a5,a0,1
    80002724:	fc0690e3          	bnez	a3,800026e4 <atol+0x30>
    80002728:	00000513          	li	a0,0
    8000272c:	fddff06f          	j	80002708 <atol+0x54>
    80002730:	00000513          	li	a0,0
    80002734:	00008067          	ret

0000000080002738 <handle_misaligned_store>:
    80002738:	fb010113          	addi	sp,sp,-80
    8000273c:	03313423          	sd	s3,40(sp)
    80002740:	03413023          	sd	s4,32(sp)
    80002744:	01513c23          	sd	s5,24(sp)
    80002748:	01613823          	sd	s6,16(sp)
    8000274c:	01713423          	sd	s7,8(sp)
    80002750:	01813023          	sd	s8,0(sp)
    80002754:	04113423          	sd	ra,72(sp)
    80002758:	04813023          	sd	s0,64(sp)
    8000275c:	02913c23          	sd	s1,56(sp)
    80002760:	03213823          	sd	s2,48(sp)
    80002764:	00060993          	mv	s3,a2
    80002768:	00058c13          	mv	s8,a1
    8000276c:	00001a97          	auipc	s5,0x1
    80002770:	ecca8a93          	addi	s5,s5,-308 # 80003638 <regnames.1025+0x8>
    80002774:	10060b93          	addi	s7,a2,256
    80002778:	00000a17          	auipc	s4,0x0
    8000277c:	6f8a0a13          	addi	s4,s4,1784 # 80002e70 <main+0x204>
    80002780:	00300b13          	li	s6,3
    80002784:	ff8ab583          	ld	a1,-8(s5)
    80002788:	0009b603          	ld	a2,0(s3)
    8000278c:	00098913          	mv	s2,s3
    80002790:	000a8493          	mv	s1,s5
    80002794:	00000413          	li	s0,0
    80002798:	00900693          	li	a3,9
    8000279c:	000a0513          	mv	a0,s4
    800027a0:	a31ff0ef          	jal	ra,800021d0 <printf>
    800027a4:	00848493          	addi	s1,s1,8
    800027a8:	0014041b          	addiw	s0,s0,1
    800027ac:	00893603          	ld	a2,8(s2)
    800027b0:	ff84b583          	ld	a1,-8(s1)
    800027b4:	00890913          	addi	s2,s2,8
    800027b8:	ff6410e3          	bne	s0,s6,80002798 <handle_misaligned_store+0x60>
    800027bc:	00a00693          	li	a3,10
    800027c0:	000a0513          	mv	a0,s4
    800027c4:	02098993          	addi	s3,s3,32
    800027c8:	a09ff0ef          	jal	ra,800021d0 <printf>
    800027cc:	020a8a93          	addi	s5,s5,32
    800027d0:	fb799ae3          	bne	s3,s7,80002784 <handle_misaligned_store+0x4c>
    800027d4:	000c0593          	mv	a1,s8
    800027d8:	00000517          	auipc	a0,0x0
    800027dc:	6a850513          	addi	a0,a0,1704 # 80002e80 <main+0x214>
    800027e0:	9f1ff0ef          	jal	ra,800021d0 <printf>
    800027e4:	04013403          	ld	s0,64(sp)
    800027e8:	04813083          	ld	ra,72(sp)
    800027ec:	03813483          	ld	s1,56(sp)
    800027f0:	03013903          	ld	s2,48(sp)
    800027f4:	02813983          	ld	s3,40(sp)
    800027f8:	02013a03          	ld	s4,32(sp)
    800027fc:	01813a83          	ld	s5,24(sp)
    80002800:	01013b03          	ld	s6,16(sp)
    80002804:	00813b83          	ld	s7,8(sp)
    80002808:	00013c03          	ld	s8,0(sp)
    8000280c:	00000517          	auipc	a0,0x0
    80002810:	67c50513          	addi	a0,a0,1660 # 80002e88 <main+0x21c>
    80002814:	05010113          	addi	sp,sp,80
    80002818:	9b9ff06f          	j	800021d0 <printf>

000000008000281c <handle_misaligned_fetch>:
    8000281c:	fb010113          	addi	sp,sp,-80
    80002820:	03313423          	sd	s3,40(sp)
    80002824:	03413023          	sd	s4,32(sp)
    80002828:	01513c23          	sd	s5,24(sp)
    8000282c:	01613823          	sd	s6,16(sp)
    80002830:	01713423          	sd	s7,8(sp)
    80002834:	01813023          	sd	s8,0(sp)
    80002838:	04113423          	sd	ra,72(sp)
    8000283c:	04813023          	sd	s0,64(sp)
    80002840:	02913c23          	sd	s1,56(sp)
    80002844:	03213823          	sd	s2,48(sp)
    80002848:	00060993          	mv	s3,a2
    8000284c:	00058c13          	mv	s8,a1
    80002850:	00001a97          	auipc	s5,0x1
    80002854:	de8a8a93          	addi	s5,s5,-536 # 80003638 <regnames.1025+0x8>
    80002858:	10060b93          	addi	s7,a2,256
    8000285c:	00000a17          	auipc	s4,0x0
    80002860:	614a0a13          	addi	s4,s4,1556 # 80002e70 <main+0x204>
    80002864:	00300b13          	li	s6,3
    80002868:	ff8ab583          	ld	a1,-8(s5)
    8000286c:	0009b603          	ld	a2,0(s3)
    80002870:	00098913          	mv	s2,s3
    80002874:	000a8493          	mv	s1,s5
    80002878:	00000413          	li	s0,0
    8000287c:	00900693          	li	a3,9
    80002880:	000a0513          	mv	a0,s4
    80002884:	94dff0ef          	jal	ra,800021d0 <printf>
    80002888:	00848493          	addi	s1,s1,8
    8000288c:	0014041b          	addiw	s0,s0,1
    80002890:	00893603          	ld	a2,8(s2)
    80002894:	ff84b583          	ld	a1,-8(s1)
    80002898:	00890913          	addi	s2,s2,8
    8000289c:	ff6410e3          	bne	s0,s6,8000287c <handle_misaligned_fetch+0x60>
    800028a0:	00a00693          	li	a3,10
    800028a4:	000a0513          	mv	a0,s4
    800028a8:	02098993          	addi	s3,s3,32
    800028ac:	925ff0ef          	jal	ra,800021d0 <printf>
    800028b0:	020a8a93          	addi	s5,s5,32
    800028b4:	fb799ae3          	bne	s3,s7,80002868 <handle_misaligned_fetch+0x4c>
    800028b8:	000c0593          	mv	a1,s8
    800028bc:	00000517          	auipc	a0,0x0
    800028c0:	5c450513          	addi	a0,a0,1476 # 80002e80 <main+0x214>
    800028c4:	90dff0ef          	jal	ra,800021d0 <printf>
    800028c8:	04013403          	ld	s0,64(sp)
    800028cc:	04813083          	ld	ra,72(sp)
    800028d0:	03813483          	ld	s1,56(sp)
    800028d4:	03013903          	ld	s2,48(sp)
    800028d8:	02813983          	ld	s3,40(sp)
    800028dc:	02013a03          	ld	s4,32(sp)
    800028e0:	01813a83          	ld	s5,24(sp)
    800028e4:	01013b03          	ld	s6,16(sp)
    800028e8:	00813b83          	ld	s7,8(sp)
    800028ec:	00013c03          	ld	s8,0(sp)
    800028f0:	00000517          	auipc	a0,0x0
    800028f4:	5b050513          	addi	a0,a0,1456 # 80002ea0 <main+0x234>
    800028f8:	05010113          	addi	sp,sp,80
    800028fc:	8d5ff06f          	j	800021d0 <printf>

0000000080002900 <handle_illegal_instruction>:
    80002900:	fb010113          	addi	sp,sp,-80
    80002904:	03313423          	sd	s3,40(sp)
    80002908:	03413023          	sd	s4,32(sp)
    8000290c:	01513c23          	sd	s5,24(sp)
    80002910:	01613823          	sd	s6,16(sp)
    80002914:	01713423          	sd	s7,8(sp)
    80002918:	01813023          	sd	s8,0(sp)
    8000291c:	04113423          	sd	ra,72(sp)
    80002920:	04813023          	sd	s0,64(sp)
    80002924:	02913c23          	sd	s1,56(sp)
    80002928:	03213823          	sd	s2,48(sp)
    8000292c:	00060993          	mv	s3,a2
    80002930:	00058c13          	mv	s8,a1
    80002934:	00001a97          	auipc	s5,0x1
    80002938:	d04a8a93          	addi	s5,s5,-764 # 80003638 <regnames.1025+0x8>
    8000293c:	10060b93          	addi	s7,a2,256
    80002940:	00000a17          	auipc	s4,0x0
    80002944:	530a0a13          	addi	s4,s4,1328 # 80002e70 <main+0x204>
    80002948:	00300b13          	li	s6,3
    8000294c:	ff8ab583          	ld	a1,-8(s5)
    80002950:	0009b603          	ld	a2,0(s3)
    80002954:	00098913          	mv	s2,s3
    80002958:	000a8493          	mv	s1,s5
    8000295c:	00000413          	li	s0,0
    80002960:	00900693          	li	a3,9
    80002964:	000a0513          	mv	a0,s4
    80002968:	869ff0ef          	jal	ra,800021d0 <printf>
    8000296c:	00848493          	addi	s1,s1,8
    80002970:	0014041b          	addiw	s0,s0,1
    80002974:	00893603          	ld	a2,8(s2)
    80002978:	ff84b583          	ld	a1,-8(s1)
    8000297c:	00890913          	addi	s2,s2,8
    80002980:	ff6410e3          	bne	s0,s6,80002960 <handle_illegal_instruction+0x60>
    80002984:	00a00693          	li	a3,10
    80002988:	000a0513          	mv	a0,s4
    8000298c:	02098993          	addi	s3,s3,32
    80002990:	841ff0ef          	jal	ra,800021d0 <printf>
    80002994:	020a8a93          	addi	s5,s5,32
    80002998:	fb799ae3          	bne	s3,s7,8000294c <handle_illegal_instruction+0x4c>
    8000299c:	000c0593          	mv	a1,s8
    800029a0:	00000517          	auipc	a0,0x0
    800029a4:	4e050513          	addi	a0,a0,1248 # 80002e80 <main+0x214>
    800029a8:	829ff0ef          	jal	ra,800021d0 <printf>
    800029ac:	04013403          	ld	s0,64(sp)
    800029b0:	04813083          	ld	ra,72(sp)
    800029b4:	03813483          	ld	s1,56(sp)
    800029b8:	03013903          	ld	s2,48(sp)
    800029bc:	02813983          	ld	s3,40(sp)
    800029c0:	02013a03          	ld	s4,32(sp)
    800029c4:	01813a83          	ld	s5,24(sp)
    800029c8:	01013b03          	ld	s6,16(sp)
    800029cc:	00813b83          	ld	s7,8(sp)
    800029d0:	00013c03          	ld	s8,0(sp)
    800029d4:	00000517          	auipc	a0,0x0
    800029d8:	4ec50513          	addi	a0,a0,1260 # 80002ec0 <main+0x254>
    800029dc:	05010113          	addi	sp,sp,80
    800029e0:	ff0ff06f          	j	800021d0 <printf>

00000000800029e4 <handle_breakpoint>:
    800029e4:	fb010113          	addi	sp,sp,-80
    800029e8:	03313423          	sd	s3,40(sp)
    800029ec:	03413023          	sd	s4,32(sp)
    800029f0:	01513c23          	sd	s5,24(sp)
    800029f4:	01613823          	sd	s6,16(sp)
    800029f8:	01713423          	sd	s7,8(sp)
    800029fc:	01813023          	sd	s8,0(sp)
    80002a00:	04113423          	sd	ra,72(sp)
    80002a04:	04813023          	sd	s0,64(sp)
    80002a08:	02913c23          	sd	s1,56(sp)
    80002a0c:	03213823          	sd	s2,48(sp)
    80002a10:	00060993          	mv	s3,a2
    80002a14:	00058c13          	mv	s8,a1
    80002a18:	00001a97          	auipc	s5,0x1
    80002a1c:	c20a8a93          	addi	s5,s5,-992 # 80003638 <regnames.1025+0x8>
    80002a20:	10060b93          	addi	s7,a2,256
    80002a24:	00000a17          	auipc	s4,0x0
    80002a28:	44ca0a13          	addi	s4,s4,1100 # 80002e70 <main+0x204>
    80002a2c:	00300b13          	li	s6,3
    80002a30:	ff8ab583          	ld	a1,-8(s5)
    80002a34:	0009b603          	ld	a2,0(s3)
    80002a38:	00098913          	mv	s2,s3
    80002a3c:	000a8493          	mv	s1,s5
    80002a40:	00000413          	li	s0,0
    80002a44:	00900693          	li	a3,9
    80002a48:	000a0513          	mv	a0,s4
    80002a4c:	f84ff0ef          	jal	ra,800021d0 <printf>
    80002a50:	00848493          	addi	s1,s1,8
    80002a54:	0014041b          	addiw	s0,s0,1
    80002a58:	00893603          	ld	a2,8(s2)
    80002a5c:	ff84b583          	ld	a1,-8(s1)
    80002a60:	00890913          	addi	s2,s2,8
    80002a64:	ff6410e3          	bne	s0,s6,80002a44 <handle_breakpoint+0x60>
    80002a68:	00a00693          	li	a3,10
    80002a6c:	000a0513          	mv	a0,s4
    80002a70:	02098993          	addi	s3,s3,32
    80002a74:	f5cff0ef          	jal	ra,800021d0 <printf>
    80002a78:	020a8a93          	addi	s5,s5,32
    80002a7c:	fb799ae3          	bne	s3,s7,80002a30 <handle_breakpoint+0x4c>
    80002a80:	000c0593          	mv	a1,s8
    80002a84:	00000517          	auipc	a0,0x0
    80002a88:	3fc50513          	addi	a0,a0,1020 # 80002e80 <main+0x214>
    80002a8c:	f44ff0ef          	jal	ra,800021d0 <printf>
    80002a90:	04013403          	ld	s0,64(sp)
    80002a94:	04813083          	ld	ra,72(sp)
    80002a98:	03813483          	ld	s1,56(sp)
    80002a9c:	03013903          	ld	s2,48(sp)
    80002aa0:	02813983          	ld	s3,40(sp)
    80002aa4:	02013a03          	ld	s4,32(sp)
    80002aa8:	01813a83          	ld	s5,24(sp)
    80002aac:	01013b03          	ld	s6,16(sp)
    80002ab0:	00813b83          	ld	s7,8(sp)
    80002ab4:	00013c03          	ld	s8,0(sp)
    80002ab8:	00000517          	auipc	a0,0x0
    80002abc:	43050513          	addi	a0,a0,1072 # 80002ee8 <main+0x27c>
    80002ac0:	05010113          	addi	sp,sp,80
    80002ac4:	f0cff06f          	j	800021d0 <printf>

0000000080002ac8 <dump_tf>:
    80002ac8:	fb010113          	addi	sp,sp,-80
    80002acc:	03313423          	sd	s3,40(sp)
    80002ad0:	03413023          	sd	s4,32(sp)
    80002ad4:	01513c23          	sd	s5,24(sp)
    80002ad8:	01613823          	sd	s6,16(sp)
    80002adc:	01713423          	sd	s7,8(sp)
    80002ae0:	01813023          	sd	s8,0(sp)
    80002ae4:	04113423          	sd	ra,72(sp)
    80002ae8:	04813023          	sd	s0,64(sp)
    80002aec:	02913c23          	sd	s1,56(sp)
    80002af0:	03213823          	sd	s2,48(sp)
    80002af4:	00060993          	mv	s3,a2
    80002af8:	00058c13          	mv	s8,a1
    80002afc:	00001a97          	auipc	s5,0x1
    80002b00:	b3ca8a93          	addi	s5,s5,-1220 # 80003638 <regnames.1025+0x8>
    80002b04:	10060b93          	addi	s7,a2,256
    80002b08:	00000a17          	auipc	s4,0x0
    80002b0c:	368a0a13          	addi	s4,s4,872 # 80002e70 <main+0x204>
    80002b10:	00300b13          	li	s6,3
    80002b14:	ff8ab583          	ld	a1,-8(s5)
    80002b18:	0009b603          	ld	a2,0(s3)
    80002b1c:	00098913          	mv	s2,s3
    80002b20:	000a8493          	mv	s1,s5
    80002b24:	00000413          	li	s0,0
    80002b28:	00900693          	li	a3,9
    80002b2c:	000a0513          	mv	a0,s4
    80002b30:	ea0ff0ef          	jal	ra,800021d0 <printf>
    80002b34:	00848493          	addi	s1,s1,8
    80002b38:	0014041b          	addiw	s0,s0,1
    80002b3c:	00893603          	ld	a2,8(s2)
    80002b40:	ff84b583          	ld	a1,-8(s1)
    80002b44:	00890913          	addi	s2,s2,8
    80002b48:	ff6410e3          	bne	s0,s6,80002b28 <dump_tf+0x60>
    80002b4c:	00a00693          	li	a3,10
    80002b50:	000a0513          	mv	a0,s4
    80002b54:	02098993          	addi	s3,s3,32
    80002b58:	e78ff0ef          	jal	ra,800021d0 <printf>
    80002b5c:	020a8a93          	addi	s5,s5,32
    80002b60:	fb799ae3          	bne	s3,s7,80002b14 <dump_tf+0x4c>
    80002b64:	04013403          	ld	s0,64(sp)
    80002b68:	04813083          	ld	ra,72(sp)
    80002b6c:	03813483          	ld	s1,56(sp)
    80002b70:	03013903          	ld	s2,48(sp)
    80002b74:	02813983          	ld	s3,40(sp)
    80002b78:	02013a03          	ld	s4,32(sp)
    80002b7c:	01813a83          	ld	s5,24(sp)
    80002b80:	01013b03          	ld	s6,16(sp)
    80002b84:	00813b83          	ld	s7,8(sp)
    80002b88:	000c0593          	mv	a1,s8
    80002b8c:	00013c03          	ld	s8,0(sp)
    80002b90:	00000517          	auipc	a0,0x0
    80002b94:	2f050513          	addi	a0,a0,752 # 80002e80 <main+0x214>
    80002b98:	05010113          	addi	sp,sp,80
    80002b9c:	e34ff06f          	j	800021d0 <printf>

0000000080002ba0 <handle_trap>:
    80002ba0:	fd010113          	addi	sp,sp,-48
    80002ba4:	02813023          	sd	s0,32(sp)
    80002ba8:	02113423          	sd	ra,40(sp)
    80002bac:	00913c23          	sd	s1,24(sp)
    80002bb0:	01213823          	sd	s2,16(sp)
    80002bb4:	01313423          	sd	s3,8(sp)
    80002bb8:	00050413          	mv	s0,a0
    80002bbc:	04055e63          	bgez	a0,80002c18 <handle_trap+0x78>
    80002bc0:	00351713          	slli	a4,a0,0x3
    80002bc4:	00001797          	auipc	a5,0x1
    80002bc8:	a6c78793          	addi	a5,a5,-1428 # 80003630 <regnames.1025>
    80002bcc:	00e787b3          	add	a5,a5,a4
    80002bd0:	1007b603          	ld	a2,256(a5)
    80002bd4:	00050593          	mv	a1,a0
    80002bd8:	00000517          	auipc	a0,0x0
    80002bdc:	32050513          	addi	a0,a0,800 # 80002ef8 <main+0x28c>
    80002be0:	df0ff0ef          	jal	ra,800021d0 <printf>
    80002be4:	00000517          	auipc	a0,0x0
    80002be8:	36c50513          	addi	a0,a0,876 # 80002f50 <main+0x2e4>
    80002bec:	de4ff0ef          	jal	ra,800021d0 <printf>
    80002bf0:	000017b7          	lui	a5,0x1
    80002bf4:	8087879b          	addiw	a5,a5,-2040
    80002bf8:	3447b7f3          	csrrc	a5,mip,a5
    80002bfc:	02813083          	ld	ra,40(sp)
    80002c00:	02013403          	ld	s0,32(sp)
    80002c04:	01813483          	ld	s1,24(sp)
    80002c08:	01013903          	ld	s2,16(sp)
    80002c0c:	00813983          	ld	s3,8(sp)
    80002c10:	03010113          	addi	sp,sp,48
    80002c14:	00008067          	ret
    80002c18:	00351793          	slli	a5,a0,0x3
    80002c1c:	00001997          	auipc	s3,0x1
    80002c20:	a1498993          	addi	s3,s3,-1516 # 80003630 <regnames.1025>
    80002c24:	00f989b3          	add	s3,s3,a5
    80002c28:	00060913          	mv	s2,a2
    80002c2c:	1609b603          	ld	a2,352(s3)
    80002c30:	00058493          	mv	s1,a1
    80002c34:	00050593          	mv	a1,a0
    80002c38:	00000517          	auipc	a0,0x0
    80002c3c:	36850513          	addi	a0,a0,872 # 80002fa0 <main+0x334>
    80002c40:	d90ff0ef          	jal	ra,800021d0 <printf>
    80002c44:	00600793          	li	a5,6
    80002c48:	0087ee63          	bltu	a5,s0,80002c64 <handle_trap+0xc4>
    80002c4c:	1e09b783          	ld	a5,480(s3)
    80002c50:	00078a63          	beqz	a5,80002c64 <handle_trap+0xc4>
    80002c54:	00090613          	mv	a2,s2
    80002c58:	00048593          	mv	a1,s1
    80002c5c:	00040513          	mv	a0,s0
    80002c60:	000780e7          	jalr	a5
    80002c64:	53900513          	li	a0,1337
    80002c68:	9f8ff0ef          	jal	ra,80001e60 <tohost_exit>

Disassembly of section .text.startup:

0000000080002c6c <main>:
    80002c6c:	fc010113          	addi	sp,sp,-64
    80002c70:	02113c23          	sd	ra,56(sp)
    80002c74:	02813823          	sd	s0,48(sp)
    80002c78:	02913423          	sd	s1,40(sp)
    80002c7c:	03213023          	sd	s2,32(sp)
    80002c80:	01313c23          	sd	s3,24(sp)
    80002c84:	01413823          	sd	s4,16(sp)
    80002c88:	01513423          	sd	s5,8(sp)
    80002c8c:	30405073          	csrwi	mie,0
    80002c90:	10405073          	csrwi	sie,0
    80002c94:	34405073          	csrwi	mip,0
    80002c98:	14405073          	csrwi	sip,0
    80002c9c:	30305073          	csrwi	mideleg,0
    80002ca0:	30205073          	csrwi	medeleg,0
    80002ca4:	f14025f3          	csrr	a1,mhartid
    80002ca8:	30002673          	csrr	a2,mstatus
    80002cac:	100026f3          	csrr	a3,sstatus
    80002cb0:	02004437          	lui	s0,0x2004
    80002cb4:	fff00793          	li	a5,-1
    80002cb8:	00f43023          	sd	a5,0(s0) # 2004000 <_tbss_end+0x2003fbc>
    80002cbc:	08000793          	li	a5,128
    80002cc0:	3047a7f3          	csrrs	a5,mie,a5
    80002cc4:	300467f3          	csrrsi	a5,mstatus,8
    80002cc8:	0200c4b7          	lui	s1,0x200c
    80002ccc:	ff84b783          	ld	a5,-8(s1) # 200bff8 <_tbss_end+0x200bfb4>
    80002cd0:	00001737          	lui	a4,0x1
    80002cd4:	fa070713          	addi	a4,a4,-96 # fa0 <_tbss_end+0xf5c>
    80002cd8:	00e787b3          	add	a5,a5,a4
    80002cdc:	00f43023          	sd	a5,0(s0)
    80002ce0:	30302773          	csrr	a4,mideleg
    80002ce4:	302027f3          	csrr	a5,medeleg
    80002ce8:	00000517          	auipc	a0,0x0
    80002cec:	0a050513          	addi	a0,a0,160 # 80002d88 <main+0x11c>
    80002cf0:	0006869b          	sext.w	a3,a3
    80002cf4:	0006061b          	sext.w	a2,a2
    80002cf8:	0005859b          	sext.w	a1,a1
    80002cfc:	cd4ff0ef          	jal	ra,800021d0 <printf>
    80002d00:	ff84b583          	ld	a1,-8(s1)
    80002d04:	00043603          	ld	a2,0(s0)
    80002d08:	00000517          	auipc	a0,0x0
    80002d0c:	0f050513          	addi	a0,a0,240 # 80002df8 <main+0x18c>
    80002d10:	000024b7          	lui	s1,0x2
    80002d14:	cbcff0ef          	jal	ra,800021d0 <printf>
    80002d18:	00100413          	li	s0,1
    80002d1c:	03200913          	li	s2,50
    80002d20:	0200cab7          	lui	s5,0x200c
    80002d24:	02004a37          	lui	s4,0x2004
    80002d28:	00000997          	auipc	s3,0x0
    80002d2c:	11098993          	addi	s3,s3,272 # 80002e38 <main+0x1cc>
    80002d30:	f4048493          	addi	s1,s1,-192 # 1f40 <_tbss_end+0x1efc>
    80002d34:	0014041b          	addiw	s0,s0,1
    80002d38:	032467bb          	remw	a5,s0,s2
    80002d3c:	02078863          	beqz	a5,80002d6c <main+0x100>
    80002d40:	fe941ae3          	bne	s0,s1,80002d34 <main+0xc8>
    80002d44:	03813083          	ld	ra,56(sp)
    80002d48:	03013403          	ld	s0,48(sp)
    80002d4c:	02813483          	ld	s1,40(sp)
    80002d50:	02013903          	ld	s2,32(sp)
    80002d54:	01813983          	ld	s3,24(sp)
    80002d58:	01013a03          	ld	s4,16(sp)
    80002d5c:	00813a83          	ld	s5,8(sp)
    80002d60:	00000513          	li	a0,0
    80002d64:	04010113          	addi	sp,sp,64
    80002d68:	00008067          	ret
    80002d6c:	ff8ab583          	ld	a1,-8(s5) # 200bff8 <_tbss_end+0x200bfb4>
    80002d70:	000a3603          	ld	a2,0(s4) # 2004000 <_tbss_end+0x2003fbc>
    80002d74:	00098513          	mv	a0,s3
    80002d78:	c58ff0ef          	jal	ra,800021d0 <printf>
    80002d7c:	fa941ce3          	bne	s0,s1,80002d34 <main+0xc8>
    80002d80:	fc5ff06f          	j	80002d44 <main+0xd8>
